SF:/Users/joe/github/deadjoe/loro/src/config.rs
FN:75,_RNvMs1_NtCscf95YBKwsk1_4loro6configNtB5_6Config8from_env
FN:126,_RNvMs1_NtCscf95YBKwsk1_4loro6configNtB5_6Config8validate
FN:28,_RNvXNtCscf95YBKwsk1_4loro6configNtB2_11ModelConfigNtNtCsaNl6UpbT7bw_4core3fmt5Debug3fmt
FN:80,_RNCNvMs1_NtCscf95YBKwsk1_4loro6configNtB7_6Config8from_env0B9_
FN:89,_RNCNvMs1_NtCscf95YBKwsk1_4loro6configNtB7_6Config8from_envs0_0B9_
FN:91,_RNCNvMs1_NtCscf95YBKwsk1_4loro6configNtB7_6Config8from_envs1_0B9_
FN:95,_RNCNvMs1_NtCscf95YBKwsk1_4loro6configNtB7_6Config8from_envs2_0B9_
FN:97,_RNCNvMs1_NtCscf95YBKwsk1_4loro6configNtB7_6Config8from_envs3_0B9_
FN:100,_RNCNvMs1_NtCscf95YBKwsk1_4loro6configNtB7_6Config8from_envs4_0B9_
FN:104,_RNCNvMs1_NtCscf95YBKwsk1_4loro6configNtB7_6Config8from_envs5_0B9_
FN:108,_RNCNvMs1_NtCscf95YBKwsk1_4loro6configNtB7_6Config8from_envs6_0B9_
FN:112,_RNCNvMs1_NtCscf95YBKwsk1_4loro6configNtB7_6Config8from_envs7_0B9_
FN:116,_RNCNvMs1_NtCscf95YBKwsk1_4loro6configNtB7_6Config8from_envs8_0B9_
FN:82,_RNCNvMs1_NtCscf95YBKwsk1_4loro6configNtB7_6Config8from_envs_0B9_
FN:241,_RNCNvNtNtCs6IJppu6JJIH_4loro6config5testss_32test_config_from_explicit_values0B7_
FN:75,_RNvMs1_NtCs6IJppu6JJIH_4loro6configNtB5_6Config8from_env
FN:126,_RNvMs1_NtCs6IJppu6JJIH_4loro6configNtB5_6Config8validate
FN:191,_RNvNtNtCs6IJppu6JJIH_4loro6config5testss_22test_config_validation
FN:80,_RNCNvMs1_NtCs6IJppu6JJIH_4loro6configNtB7_6Config8from_env0B9_
FN:89,_RNCNvMs1_NtCs6IJppu6JJIH_4loro6configNtB7_6Config8from_envs0_0B9_
FN:91,_RNCNvMs1_NtCs6IJppu6JJIH_4loro6configNtB7_6Config8from_envs1_0B9_
FN:95,_RNCNvMs1_NtCs6IJppu6JJIH_4loro6configNtB7_6Config8from_envs2_0B9_
FN:97,_RNCNvMs1_NtCs6IJppu6JJIH_4loro6configNtB7_6Config8from_envs3_0B9_
FN:100,_RNCNvMs1_NtCs6IJppu6JJIH_4loro6configNtB7_6Config8from_envs4_0B9_
FN:104,_RNCNvMs1_NtCs6IJppu6JJIH_4loro6configNtB7_6Config8from_envs5_0B9_
FN:108,_RNCNvMs1_NtCs6IJppu6JJIH_4loro6configNtB7_6Config8from_envs6_0B9_
FN:112,_RNCNvMs1_NtCs6IJppu6JJIH_4loro6configNtB7_6Config8from_envs7_0B9_
FN:116,_RNCNvMs1_NtCs6IJppu6JJIH_4loro6configNtB7_6Config8from_envs8_0B9_
FN:82,_RNCNvMs1_NtCs6IJppu6JJIH_4loro6configNtB7_6Config8from_envs_0B9_
FN:54,_RINvXs0_NtCs6IJppu6JJIH_4loro6configNtB6_11ModelConfigNtNtCsjBk0UunP8Ik_5serde2de11Deserialize11deserializepEB8_
FN:39,_RINvXs_NtCs6IJppu6JJIH_4loro6configNtB5_11ModelConfigNtNtCsjBk0UunP8Ik_5serde3ser9Serialize9serializepEB7_
FN:28,_RNvXNtCs6IJppu6JJIH_4loro6configNtB2_11ModelConfigNtNtCsaNl6UpbT7bw_4core3fmt5Debug3fmt
FNDA:11,_RNvMs1_NtCscf95YBKwsk1_4loro6configNtB5_6Config8from_env
FNDA:18,_RNvMs1_NtCscf95YBKwsk1_4loro6configNtB5_6Config8validate
FNDA:1,_RNvXNtCscf95YBKwsk1_4loro6configNtB2_11ModelConfigNtNtCsaNl6UpbT7bw_4core3fmt5Debug3fmt
FNDA:0,_RNCNvMs1_NtCscf95YBKwsk1_4loro6configNtB7_6Config8from_env0B9_
FNDA:0,_RNCNvMs1_NtCscf95YBKwsk1_4loro6configNtB7_6Config8from_envs0_0B9_
FNDA:0,_RNCNvMs1_NtCscf95YBKwsk1_4loro6configNtB7_6Config8from_envs1_0B9_
FNDA:5,_RNCNvMs1_NtCscf95YBKwsk1_4loro6configNtB7_6Config8from_envs2_0B9_
FNDA:4,_RNCNvMs1_NtCscf95YBKwsk1_4loro6configNtB7_6Config8from_envs3_0B9_
FNDA:5,_RNCNvMs1_NtCscf95YBKwsk1_4loro6configNtB7_6Config8from_envs4_0B9_
FNDA:4,_RNCNvMs1_NtCscf95YBKwsk1_4loro6configNtB7_6Config8from_envs5_0B9_
FNDA:4,_RNCNvMs1_NtCscf95YBKwsk1_4loro6configNtB7_6Config8from_envs6_0B9_
FNDA:4,_RNCNvMs1_NtCscf95YBKwsk1_4loro6configNtB7_6Config8from_envs7_0B9_
FNDA:4,_RNCNvMs1_NtCscf95YBKwsk1_4loro6configNtB7_6Config8from_envs8_0B9_
FNDA:0,_RNCNvMs1_NtCscf95YBKwsk1_4loro6configNtB7_6Config8from_envs_0B9_
FNDA:1,_RNCNvNtNtCs6IJppu6JJIH_4loro6config5testss_32test_config_from_explicit_values0B7_
FNDA:1,_RNvMs1_NtCs6IJppu6JJIH_4loro6configNtB5_6Config8from_env
FNDA:8,_RNvMs1_NtCs6IJppu6JJIH_4loro6configNtB5_6Config8validate
FNDA:1,_RNvNtNtCs6IJppu6JJIH_4loro6config5testss_22test_config_validation
FNDA:0,_RNCNvMs1_NtCs6IJppu6JJIH_4loro6configNtB7_6Config8from_env0B9_
FNDA:0,_RNCNvMs1_NtCs6IJppu6JJIH_4loro6configNtB7_6Config8from_envs0_0B9_
FNDA:0,_RNCNvMs1_NtCs6IJppu6JJIH_4loro6configNtB7_6Config8from_envs1_0B9_
FNDA:0,_RNCNvMs1_NtCs6IJppu6JJIH_4loro6configNtB7_6Config8from_envs2_0B9_
FNDA:0,_RNCNvMs1_NtCs6IJppu6JJIH_4loro6configNtB7_6Config8from_envs3_0B9_
FNDA:0,_RNCNvMs1_NtCs6IJppu6JJIH_4loro6configNtB7_6Config8from_envs4_0B9_
FNDA:0,_RNCNvMs1_NtCs6IJppu6JJIH_4loro6configNtB7_6Config8from_envs5_0B9_
FNDA:0,_RNCNvMs1_NtCs6IJppu6JJIH_4loro6configNtB7_6Config8from_envs6_0B9_
FNDA:0,_RNCNvMs1_NtCs6IJppu6JJIH_4loro6configNtB7_6Config8from_envs7_0B9_
FNDA:0,_RNCNvMs1_NtCs6IJppu6JJIH_4loro6configNtB7_6Config8from_envs8_0B9_
FNDA:0,_RNCNvMs1_NtCs6IJppu6JJIH_4loro6configNtB7_6Config8from_envs_0B9_
FNDA:0,_RINvXs0_NtCs6IJppu6JJIH_4loro6configNtB6_11ModelConfigNtNtCsjBk0UunP8Ik_5serde2de11Deserialize11deserializepEB8_
FNDA:0,_RINvXs_NtCs6IJppu6JJIH_4loro6configNtB5_11ModelConfigNtNtCsjBk0UunP8Ik_5serde3ser9Serialize9serializepEB7_
FNDA:0,_RNvXNtCs6IJppu6JJIH_4loro6configNtB2_11ModelConfigNtNtCsaNl6UpbT7bw_4core3fmt5Debug3fmt
FNF:18
FNH:12
DA:28,1
DA:29,1
DA:30,1
DA:31,1
DA:32,1
DA:33,1
DA:34,1
DA:39,0
DA:40,0
DA:41,0
DA:44,0
DA:45,0
DA:46,0
DA:47,0
DA:48,0
DA:49,0
DA:54,0
DA:55,0
DA:56,0
DA:65,0
DA:66,0
DA:67,0
DA:68,0
DA:69,0
DA:70,0
DA:71,0
DA:75,12
DA:76,11
DA:77,12
DA:78,12
DA:79,11
DA:80,11
DA:81,11
DA:82,11
DA:85,11
DA:86,11
DA:87,11
DA:88,11
DA:89,11
DA:90,11
DA:91,11
DA:94,10
DA:95,11
DA:96,11
DA:97,11
DA:98,11
DA:99,11
DA:100,10
DA:101,10
DA:102,10
DA:103,10
DA:104,10
DA:105,10
DA:106,10
DA:107,10
DA:108,10
DA:109,10
DA:110,10
DA:111,10
DA:112,10
DA:113,10
DA:114,10
DA:115,10
DA:116,10
DA:117,10
DA:118,10
DA:122,10
DA:123,10
DA:124,12
DA:126,26
DA:128,26
DA:129,3
DA:130,23
DA:131,23
DA:132,0
DA:133,23
DA:141,23
DA:142,1
DA:143,1
DA:144,1
DA:145,22
DA:146,22
DA:147,1
DA:148,1
DA:149,1
DA:150,21
DA:153,21
DA:154,0
DA:155,21
DA:156,21
DA:157,0
DA:158,21
DA:161,21
DA:162,6
DA:163,6
DA:164,6
DA:165,15
DA:166,15
DA:167,0
DA:168,0
DA:169,0
DA:170,15
DA:171,15
DA:172,0
DA:173,15
DA:174,15
DA:175,2
DA:176,2
DA:177,2
DA:178,13
DA:180,13
DA:181,26
DA:191,1
DA:192,1
DA:193,1
DA:194,1
DA:195,1
DA:196,1
DA:197,1
DA:198,1
DA:199,1
DA:200,1
DA:201,1
DA:202,1
DA:203,1
DA:204,1
DA:205,1
DA:206,1
DA:207,1
DA:208,1
DA:209,1
DA:210,1
DA:213,1
DA:216,1
DA:217,1
DA:218,1
DA:221,1
DA:222,1
DA:223,1
DA:226,1
DA:227,1
DA:228,1
DA:229,1
DA:230,1
DA:233,1
DA:234,1
DA:235,1
DA:236,1
DA:237,1
DA:241,1
DA:244,1
DA:245,1
DA:248,1
DA:249,1
DA:250,1
DA:251,1
DA:252,1
DA:253,1
DA:255,1
DA:257,1
DA:258,1
DA:259,1
DA:260,1
DA:261,1
DA:262,1
DA:263,1
DA:264,1
BRF:0
BRH:0
LF:178
LH:145
end_of_record
SF:/Users/joe/github/deadjoe/loro/src/errors.rs
FN:41,_RNvMNtCscf95YBKwsk1_4loro6errorsNtB2_9LoroError10is_timeout
FN:45,_RNvMNtCscf95YBKwsk1_4loro6errorsNtB2_9LoroError12is_api_error
FN:49,_RNvMNtCscf95YBKwsk1_4loro6errorsNtB2_9LoroError19is_validation_error
FN:41,_RNvMNtCs6IJppu6JJIH_4loro6errorsNtB2_9LoroError10is_timeout
FN:45,_RNvMNtCs6IJppu6JJIH_4loro6errorsNtB2_9LoroError12is_api_error
FN:49,_RNvMNtCs6IJppu6JJIH_4loro6errorsNtB2_9LoroError19is_validation_error
FNDA:3,_RNvMNtCscf95YBKwsk1_4loro6errorsNtB2_9LoroError10is_timeout
FNDA:2,_RNvMNtCscf95YBKwsk1_4loro6errorsNtB2_9LoroError12is_api_error
FNDA:2,_RNvMNtCscf95YBKwsk1_4loro6errorsNtB2_9LoroError19is_validation_error
FNDA:0,_RNvMNtCs6IJppu6JJIH_4loro6errorsNtB2_9LoroError10is_timeout
FNDA:0,_RNvMNtCs6IJppu6JJIH_4loro6errorsNtB2_9LoroError12is_api_error
FNDA:0,_RNvMNtCs6IJppu6JJIH_4loro6errorsNtB2_9LoroError19is_validation_error
FNF:3
FNH:3
DA:41,3
DA:42,3
DA:43,3
DA:45,2
DA:46,2
DA:47,2
DA:49,2
DA:50,2
DA:51,2
BRF:0
BRH:0
LF:9
LH:9
end_of_record
SF:/Users/joe/github/deadjoe/loro/src/lib.rs
FN:107,_RNCNvCscf95YBKwsk1_4loro11get_metrics0Cs87FlaAfIID6_19http_endpoints_test
FN:111,_RNCNvCscf95YBKwsk1_4loro13reset_metrics0Cs87FlaAfIID6_19http_endpoints_test
FN:33,_RNCNvCscf95YBKwsk1_4loro16chat_completions0Cs87FlaAfIID6_19http_endpoints_test
FN:16,_RNCNvCscf95YBKwsk1_4loro4root0Cs87FlaAfIID6_19http_endpoints_test
FN:24,_RNCNvCscf95YBKwsk1_4loro6health0Cs87FlaAfIID6_19http_endpoints_test
FN:107,_RNvCscf95YBKwsk1_4loro11get_metrics
FN:111,_RNvCscf95YBKwsk1_4loro13reset_metrics
FN:30,_RNvCscf95YBKwsk1_4loro16chat_completions
FN:16,_RNvCscf95YBKwsk1_4loro4root
FN:24,_RNvCscf95YBKwsk1_4loro6health
FN:107,_RNCNvCscf95YBKwsk1_4loro11get_metrics0CscHcYy1Qx0uY_4loro
FN:111,_RNCNvCscf95YBKwsk1_4loro13reset_metrics0CscHcYy1Qx0uY_4loro
FN:33,_RNCNvCscf95YBKwsk1_4loro16chat_completions0CscHcYy1Qx0uY_4loro
FN:16,_RNCNvCscf95YBKwsk1_4loro4root0CscHcYy1Qx0uY_4loro
FN:24,_RNCNvCscf95YBKwsk1_4loro6health0CscHcYy1Qx0uY_4loro
FN:107,_RNCNvCs6IJppu6JJIH_4loro11get_metrics0B3_
FN:111,_RNCNvCs6IJppu6JJIH_4loro13reset_metrics0B3_
FN:33,_RNCNvCs6IJppu6JJIH_4loro16chat_completions0B3_
FN:16,_RNCNvCs6IJppu6JJIH_4loro4root0B3_
FN:24,_RNCNvCs6IJppu6JJIH_4loro6health0B3_
FN:107,_RNvCs6IJppu6JJIH_4loro11get_metrics
FN:111,_RNvCs6IJppu6JJIH_4loro13reset_metrics
FN:30,_RNvCs6IJppu6JJIH_4loro16chat_completions
FN:16,_RNvCs6IJppu6JJIH_4loro4root
FN:24,_RNvCs6IJppu6JJIH_4loro6health
FNDA:1,_RNCNvCscf95YBKwsk1_4loro11get_metrics0Cs87FlaAfIID6_19http_endpoints_test
FNDA:1,_RNCNvCscf95YBKwsk1_4loro13reset_metrics0Cs87FlaAfIID6_19http_endpoints_test
FNDA:5,_RNCNvCscf95YBKwsk1_4loro16chat_completions0Cs87FlaAfIID6_19http_endpoints_test
FNDA:1,_RNCNvCscf95YBKwsk1_4loro4root0Cs87FlaAfIID6_19http_endpoints_test
FNDA:1,_RNCNvCscf95YBKwsk1_4loro6health0Cs87FlaAfIID6_19http_endpoints_test
FNDA:1,_RNvCscf95YBKwsk1_4loro11get_metrics
FNDA:1,_RNvCscf95YBKwsk1_4loro13reset_metrics
FNDA:5,_RNvCscf95YBKwsk1_4loro16chat_completions
FNDA:1,_RNvCscf95YBKwsk1_4loro4root
FNDA:1,_RNvCscf95YBKwsk1_4loro6health
FNDA:0,_RNCNvCscf95YBKwsk1_4loro11get_metrics0CscHcYy1Qx0uY_4loro
FNDA:0,_RNCNvCscf95YBKwsk1_4loro13reset_metrics0CscHcYy1Qx0uY_4loro
FNDA:0,_RNCNvCscf95YBKwsk1_4loro16chat_completions0CscHcYy1Qx0uY_4loro
FNDA:0,_RNCNvCscf95YBKwsk1_4loro4root0CscHcYy1Qx0uY_4loro
FNDA:0,_RNCNvCscf95YBKwsk1_4loro6health0CscHcYy1Qx0uY_4loro
FNDA:0,_RNCNvCs6IJppu6JJIH_4loro11get_metrics0B3_
FNDA:0,_RNCNvCs6IJppu6JJIH_4loro13reset_metrics0B3_
FNDA:0,_RNCNvCs6IJppu6JJIH_4loro16chat_completions0B3_
FNDA:0,_RNCNvCs6IJppu6JJIH_4loro4root0B3_
FNDA:0,_RNCNvCs6IJppu6JJIH_4loro6health0B3_
FNDA:0,_RNvCs6IJppu6JJIH_4loro11get_metrics
FNDA:0,_RNvCs6IJppu6JJIH_4loro13reset_metrics
FNDA:0,_RNvCs6IJppu6JJIH_4loro16chat_completions
FNDA:0,_RNvCs6IJppu6JJIH_4loro4root
FNDA:0,_RNvCs6IJppu6JJIH_4loro6health
FNF:10
FNH:10
DA:16,1
DA:17,1
DA:18,1
DA:19,1
DA:20,1
DA:21,1
DA:22,1
DA:24,1
DA:25,1
DA:26,1
DA:27,1
DA:28,1
DA:30,5
DA:31,5
DA:32,5
DA:33,5
DA:38,5
DA:39,5
DA:40,5
DA:41,5
DA:42,5
DA:43,5
DA:44,5
DA:45,5
DA:46,5
DA:47,5
DA:48,5
DA:49,5
DA:50,0
DA:52,0
DA:53,0
DA:54,0
DA:55,0
DA:56,0
DA:57,0
DA:58,0
DA:59,0
DA:60,0
DA:61,0
DA:62,0
DA:63,0
DA:64,0
DA:65,0
DA:66,0
DA:68,0
DA:70,0
DA:71,0
DA:72,0
DA:73,0
DA:74,0
DA:75,0
DA:76,0
DA:77,0
DA:78,0
DA:79,0
DA:80,0
DA:81,0
DA:82,0
DA:83,0
DA:84,0
DA:85,0
DA:86,0
DA:87,0
DA:88,0
DA:89,0
DA:90,0
DA:91,0
DA:92,0
DA:93,0
DA:94,0
DA:95,0
DA:96,0
DA:97,0
DA:98,0
DA:99,0
DA:100,0
DA:102,0
DA:105,5
DA:107,1
DA:108,1
DA:109,1
DA:111,1
DA:112,1
DA:113,1
DA:114,1
DA:115,1
DA:116,1
BRF:0
BRH:0
LF:92
LH:43
end_of_record
SF:/Users/joe/github/deadjoe/loro/src/main.rs
FN:13,_RNvCscHcYy1Qx0uY_4loro4main
FN:21,_RNCNCNvCscHcYy1Qx0uY_4loro4main00B5_
FN:13,_RNCNvCscHcYy1Qx0uY_4loro4main0B3_
FN:21,_RNCNCNvCsi5flPJd2aF8_4loro4main00B5_
FN:13,_RNCNvCsi5flPJd2aF8_4loro4main0B3_
FN:13,_RNvCsi5flPJd2aF8_4loro4main
FNDA:0,_RNvCscHcYy1Qx0uY_4loro4main
FNDA:0,_RNCNCNvCscHcYy1Qx0uY_4loro4main00B5_
FNDA:0,_RNCNvCscHcYy1Qx0uY_4loro4main0B3_
FNDA:0,_RNCNCNvCsi5flPJd2aF8_4loro4main00B5_
FNDA:0,_RNCNvCsi5flPJd2aF8_4loro4main0B3_
FNDA:0,_RNvCsi5flPJd2aF8_4loro4main
FNF:3
FNH:0
DA:13,0
DA:15,0
DA:18,0
DA:19,0
DA:20,0
DA:21,0
DA:23,0
DA:24,0
DA:30,0
DA:31,0
DA:32,0
DA:37,0
DA:40,0
DA:41,0
DA:42,0
DA:43,0
DA:44,0
DA:45,0
DA:46,0
DA:47,0
DA:48,0
DA:51,0
DA:52,0
DA:54,0
DA:56,0
DA:57,0
BRF:0
BRH:0
LF:29
LH:0
end_of_record
SF:/Users/joe/github/deadjoe/loro/src/models.rs
FN:28,_RNvMNtCscf95YBKwsk1_4loro6modelsNtB2_21ChatCompletionRequest8validate
FN:213,_RNvMs0_NtCscf95YBKwsk1_4loro6modelsNtB5_7Message10categorize
FN:202,_RNvMs_NtCscf95YBKwsk1_4loro6modelsNtB4_15RequestCategory13get_responses
FN:74,_RNvNtCscf95YBKwsk1_4loro6models14default_stream
FN:70,_RNvNtCscf95YBKwsk1_4loro6models19default_temperature
FN:28,_RNvMNtCs6IJppu6JJIH_4loro6modelsNtB2_21ChatCompletionRequest8validate
FN:213,_RNvMs0_NtCs6IJppu6JJIH_4loro6modelsNtB5_7Message10categorize
FN:202,_RNvMs_NtCs6IJppu6JJIH_4loro6modelsNtB4_15RequestCategory13get_responses
FN:74,_RNvNtCs6IJppu6JJIH_4loro6models14default_stream
FN:70,_RNvNtCs6IJppu6JJIH_4loro6models19default_temperature
FNDA:37,_RNvMNtCscf95YBKwsk1_4loro6modelsNtB2_21ChatCompletionRequest8validate
FNDA:32,_RNvMs0_NtCscf95YBKwsk1_4loro6modelsNtB5_7Message10categorize
FNDA:40,_RNvMs_NtCscf95YBKwsk1_4loro6modelsNtB4_15RequestCategory13get_responses
FNDA:5,_RNvNtCscf95YBKwsk1_4loro6models14default_stream
FNDA:4,_RNvNtCscf95YBKwsk1_4loro6models19default_temperature
FNDA:0,_RNvMNtCs6IJppu6JJIH_4loro6modelsNtB2_21ChatCompletionRequest8validate
FNDA:0,_RNvMs0_NtCs6IJppu6JJIH_4loro6modelsNtB5_7Message10categorize
FNDA:0,_RNvMs_NtCs6IJppu6JJIH_4loro6modelsNtB4_15RequestCategory13get_responses
FNDA:0,_RNvNtCs6IJppu6JJIH_4loro6models14default_stream
FNDA:0,_RNvNtCs6IJppu6JJIH_4loro6models19default_temperature
FNF:5
FNH:5
DA:28,37
DA:29,37
DA:30,3
DA:31,34
DA:33,34
DA:34,4
DA:35,30
DA:37,30
DA:38,30
DA:39,0
DA:40,30
DA:41,30
DA:42,2
DA:43,28
DA:44,28
DA:45,4
DA:46,24
DA:49,24
DA:50,14
DA:51,6
DA:52,8
DA:53,10
DA:55,18
DA:56,7
DA:57,11
DA:59,11
DA:60,37
DA:70,4
DA:71,4
DA:72,4
DA:74,5
DA:75,5
DA:76,5
DA:202,40
DA:203,40
DA:204,9
DA:205,8
DA:206,8
DA:207,15
DA:209,40
DA:213,32
DA:214,32
DA:217,32
DA:218,27
DA:219,25
DA:220,25
DA:222,7
DA:225,25
DA:226,20
DA:227,20
DA:228,20
DA:229,20
DA:230,20
DA:231,19
DA:232,16
DA:233,16
DA:235,9
DA:238,16
DA:239,13
DA:240,13
DA:241,13
DA:242,13
DA:243,11
DA:245,5
DA:247,11
DA:249,32
BRF:0
BRH:0
LF:66
LH:65
end_of_record
SF:/Users/joe/github/deadjoe/loro/src/service.rs
FN:713,_RNvMNtCscf95YBKwsk1_4loro7serviceNtB2_11LoroService11get_metrics
FN:736,_RNvMNtCscf95YBKwsk1_4loro7serviceNtB2_11LoroService13reset_metrics
FN:63,_RNvMNtCscf95YBKwsk1_4loro7serviceNtB2_11LoroService15chat_completion
FN:249,_RNvMNtCscf95YBKwsk1_4loro7serviceNtB2_11LoroService16call_small_model
FN:218,_RNvMNtCscf95YBKwsk1_4loro7serviceNtB2_11LoroService18get_quick_response
FN:88,_RNvMNtCscf95YBKwsk1_4loro7serviceNtB2_11LoroService21stream_quick_response
FN:411,_RNvMNtCscf95YBKwsk1_4loro7serviceNtB2_11LoroService22get_large_model_stream
FN:183,_RNvMNtCscf95YBKwsk1_4loro7serviceNtB2_11LoroService22stream_direct_response
FN:599,_RNvMNtCscf95YBKwsk1_4loro7serviceNtB2_11LoroService23process_sse_line_static
FN:398,_RNvMNtCscf95YBKwsk1_4loro7serviceNtB2_11LoroService29is_appropriate_quick_response
FN:37,_RNvMNtCscf95YBKwsk1_4loro7serviceNtB2_11LoroService3new
FN:404,_RNCNvMNtCscf95YBKwsk1_4loro7serviceNtB4_11LoroService29is_appropriate_quick_response0B6_
FN:744,_RINvNtCscf95YBKwsk1_4loro7service18execute_with_retryNCNCNvMB2_NtB2_11LoroService16call_small_model0s_0NtNtNtCs8MIZS7aWa8c_7reqwest10async_impl8response8ResponseNtCsdv8H5wLNKRh_6anyhow5ErrorECslPFJwxeckmV_15end_to_end_test
FN:744,_RINvNtCscf95YBKwsk1_4loro7service18execute_with_retryNCNCNvMB2_NtB2_11LoroService22get_large_model_stream0s_0NtNtNtCs8MIZS7aWa8c_7reqwest10async_impl8response8ResponseNtCsdv8H5wLNKRh_6anyhow5ErrorECslPFJwxeckmV_15end_to_end_test
FN:752,_RNCINvNtCscf95YBKwsk1_4loro7service18execute_with_retryNCNCNvMB4_NtB4_11LoroService16call_small_model0s_0NtNtNtCs8MIZS7aWa8c_7reqwest10async_impl8response8ResponseNtCsdv8H5wLNKRh_6anyhow5ErrorE0CslPFJwxeckmV_15end_to_end_test
FN:752,_RNCINvNtCscf95YBKwsk1_4loro7service18execute_with_retryNCNCNvMB4_NtB4_11LoroService22get_large_model_stream0s_0NtNtNtCs8MIZS7aWa8c_7reqwest10async_impl8response8ResponseNtCsdv8H5wLNKRh_6anyhow5ErrorE0CslPFJwxeckmV_15end_to_end_test
FN:352,_RNCNCNCNCNvMNtCscf95YBKwsk1_4loro7serviceNtBa_11LoroService16call_small_model0s_0s_00CslPFJwxeckmV_15end_to_end_test
FN:353,_RNCNCNCNCNvMNtCscf95YBKwsk1_4loro7serviceNtBa_11LoroService16call_small_model0s_0s_0s_0CslPFJwxeckmV_15end_to_end_test
FN:483,_RNCNCNCNCNvMNtCscf95YBKwsk1_4loro7serviceNtBa_11LoroService22get_large_model_stream0s_0s_00CslPFJwxeckmV_15end_to_end_test
FN:343,_RNCNCNCNvMNtCscf95YBKwsk1_4loro7serviceNtB8_11LoroService16call_small_model0s_00CslPFJwxeckmV_15end_to_end_test
FN:349,_RNCNCNCNvMNtCscf95YBKwsk1_4loro7serviceNtB8_11LoroService16call_small_model0s_0s_0CslPFJwxeckmV_15end_to_end_test
FN:474,_RNCNCNCNvMNtCscf95YBKwsk1_4loro7serviceNtB8_11LoroService22get_large_model_stream0s_00CslPFJwxeckmV_15end_to_end_test
FN:479,_RNCNCNCNvMNtCscf95YBKwsk1_4loro7serviceNtB8_11LoroService22get_large_model_stream0s_0s_0CslPFJwxeckmV_15end_to_end_test
FN:77,_RNCNCNvMNtCscf95YBKwsk1_4loro7serviceNtB6_11LoroService15chat_completion00CslPFJwxeckmV_15end_to_end_test
FN:335,_RNCNCNvMNtCscf95YBKwsk1_4loro7serviceNtB6_11LoroService16call_small_model00CslPFJwxeckmV_15end_to_end_test
FN:389,_RNCNCNvMNtCscf95YBKwsk1_4loro7serviceNtB6_11LoroService16call_small_model0s0_0CslPFJwxeckmV_15end_to_end_test
FN:390,_RNCNCNvMNtCscf95YBKwsk1_4loro7serviceNtB6_11LoroService16call_small_model0s1_0CslPFJwxeckmV_15end_to_end_test
FN:391,_RNCNCNvMNtCscf95YBKwsk1_4loro7serviceNtB6_11LoroService16call_small_model0s2_0CslPFJwxeckmV_15end_to_end_test
FN:339,_RNCNCNvMNtCscf95YBKwsk1_4loro7serviceNtB6_11LoroService16call_small_model0s_0CslPFJwxeckmV_15end_to_end_test
FN:154,_RNCNCNvMNtCscf95YBKwsk1_4loro7serviceNtB6_11LoroService21stream_quick_response00CslPFJwxeckmV_15end_to_end_test
FN:178,_RNCNCNvMNtCscf95YBKwsk1_4loro7serviceNtB6_11LoroService21stream_quick_response0s0_0CslPFJwxeckmV_15end_to_end_test
FN:176,_RNCNCNvMNtCscf95YBKwsk1_4loro7serviceNtB6_11LoroService21stream_quick_response0s_0CslPFJwxeckmV_15end_to_end_test
FN:468,_RNCNCNvMNtCscf95YBKwsk1_4loro7serviceNtB6_11LoroService22get_large_model_stream00CslPFJwxeckmV_15end_to_end_test
FN:508,_RNCNCNvMNtCscf95YBKwsk1_4loro7serviceNtB6_11LoroService22get_large_model_stream0s0_0CslPFJwxeckmV_15end_to_end_test
FN:470,_RNCNCNvMNtCscf95YBKwsk1_4loro7serviceNtB6_11LoroService22get_large_model_stream0s_0CslPFJwxeckmV_15end_to_end_test
FN:191,_RNCNCNvMNtCscf95YBKwsk1_4loro7serviceNtB6_11LoroService22stream_direct_response00CslPFJwxeckmV_15end_to_end_test
FN:213,_RNCNCNvMNtCscf95YBKwsk1_4loro7serviceNtB6_11LoroService22stream_direct_response0s_0CslPFJwxeckmV_15end_to_end_test
FN:713,_RNCNvMNtCscf95YBKwsk1_4loro7serviceNtB4_11LoroService11get_metrics0CslPFJwxeckmV_15end_to_end_test
FN:736,_RNCNvMNtCscf95YBKwsk1_4loro7serviceNtB4_11LoroService13reset_metrics0CslPFJwxeckmV_15end_to_end_test
FN:63,_RNCNvMNtCscf95YBKwsk1_4loro7serviceNtB4_11LoroService15chat_completion0CslPFJwxeckmV_15end_to_end_test
FN:249,_RNCNvMNtCscf95YBKwsk1_4loro7serviceNtB4_11LoroService16call_small_model0CslPFJwxeckmV_15end_to_end_test
FN:218,_RNCNvMNtCscf95YBKwsk1_4loro7serviceNtB4_11LoroService18get_quick_response0CslPFJwxeckmV_15end_to_end_test
FN:91,_RNCNvMNtCscf95YBKwsk1_4loro7serviceNtB4_11LoroService21stream_quick_response0CslPFJwxeckmV_15end_to_end_test
FN:415,_RNCNvMNtCscf95YBKwsk1_4loro7serviceNtB4_11LoroService22get_large_model_stream0CslPFJwxeckmV_15end_to_end_test
FN:186,_RNCNvMNtCscf95YBKwsk1_4loro7serviceNtB4_11LoroService22stream_direct_response0CslPFJwxeckmV_15end_to_end_test
FN:37,_RNCNvMNtCscf95YBKwsk1_4loro7serviceNtB4_11LoroService3new0CslPFJwxeckmV_15end_to_end_test
FN:744,_RINvNtCscf95YBKwsk1_4loro7service18execute_with_retryNCNCNvMB2_NtB2_11LoroService16call_small_model0s_0NtNtNtCs8MIZS7aWa8c_7reqwest10async_impl8response8ResponseNtCsdv8H5wLNKRh_6anyhow5ErrorECs87FlaAfIID6_19http_endpoints_test
FN:744,_RINvNtCscf95YBKwsk1_4loro7service18execute_with_retryNCNCNvMB2_NtB2_11LoroService22get_large_model_stream0s_0NtNtNtCs8MIZS7aWa8c_7reqwest10async_impl8response8ResponseNtCsdv8H5wLNKRh_6anyhow5ErrorECs87FlaAfIID6_19http_endpoints_test
FN:752,_RNCINvNtCscf95YBKwsk1_4loro7service18execute_with_retryNCNCNvMB4_NtB4_11LoroService16call_small_model0s_0NtNtNtCs8MIZS7aWa8c_7reqwest10async_impl8response8ResponseNtCsdv8H5wLNKRh_6anyhow5ErrorE0Cs87FlaAfIID6_19http_endpoints_test
FN:752,_RNCINvNtCscf95YBKwsk1_4loro7service18execute_with_retryNCNCNvMB4_NtB4_11LoroService22get_large_model_stream0s_0NtNtNtCs8MIZS7aWa8c_7reqwest10async_impl8response8ResponseNtCsdv8H5wLNKRh_6anyhow5ErrorE0Cs87FlaAfIID6_19http_endpoints_test
FN:352,_RNCNCNCNCNvMNtCscf95YBKwsk1_4loro7serviceNtBa_11LoroService16call_small_model0s_0s_00Cs87FlaAfIID6_19http_endpoints_test
FN:353,_RNCNCNCNCNvMNtCscf95YBKwsk1_4loro7serviceNtBa_11LoroService16call_small_model0s_0s_0s_0Cs87FlaAfIID6_19http_endpoints_test
FN:483,_RNCNCNCNCNvMNtCscf95YBKwsk1_4loro7serviceNtBa_11LoroService22get_large_model_stream0s_0s_00Cs87FlaAfIID6_19http_endpoints_test
FN:343,_RNCNCNCNvMNtCscf95YBKwsk1_4loro7serviceNtB8_11LoroService16call_small_model0s_00Cs87FlaAfIID6_19http_endpoints_test
FN:349,_RNCNCNCNvMNtCscf95YBKwsk1_4loro7serviceNtB8_11LoroService16call_small_model0s_0s_0Cs87FlaAfIID6_19http_endpoints_test
FN:474,_RNCNCNCNvMNtCscf95YBKwsk1_4loro7serviceNtB8_11LoroService22get_large_model_stream0s_00Cs87FlaAfIID6_19http_endpoints_test
FN:479,_RNCNCNCNvMNtCscf95YBKwsk1_4loro7serviceNtB8_11LoroService22get_large_model_stream0s_0s_0Cs87FlaAfIID6_19http_endpoints_test
FN:77,_RNCNCNvMNtCscf95YBKwsk1_4loro7serviceNtB6_11LoroService15chat_completion00Cs87FlaAfIID6_19http_endpoints_test
FN:335,_RNCNCNvMNtCscf95YBKwsk1_4loro7serviceNtB6_11LoroService16call_small_model00Cs87FlaAfIID6_19http_endpoints_test
FN:389,_RNCNCNvMNtCscf95YBKwsk1_4loro7serviceNtB6_11LoroService16call_small_model0s0_0Cs87FlaAfIID6_19http_endpoints_test
FN:390,_RNCNCNvMNtCscf95YBKwsk1_4loro7serviceNtB6_11LoroService16call_small_model0s1_0Cs87FlaAfIID6_19http_endpoints_test
FN:391,_RNCNCNvMNtCscf95YBKwsk1_4loro7serviceNtB6_11LoroService16call_small_model0s2_0Cs87FlaAfIID6_19http_endpoints_test
FN:339,_RNCNCNvMNtCscf95YBKwsk1_4loro7serviceNtB6_11LoroService16call_small_model0s_0Cs87FlaAfIID6_19http_endpoints_test
FN:154,_RNCNCNvMNtCscf95YBKwsk1_4loro7serviceNtB6_11LoroService21stream_quick_response00Cs87FlaAfIID6_19http_endpoints_test
FN:178,_RNCNCNvMNtCscf95YBKwsk1_4loro7serviceNtB6_11LoroService21stream_quick_response0s0_0Cs87FlaAfIID6_19http_endpoints_test
FN:176,_RNCNCNvMNtCscf95YBKwsk1_4loro7serviceNtB6_11LoroService21stream_quick_response0s_0Cs87FlaAfIID6_19http_endpoints_test
FN:468,_RNCNCNvMNtCscf95YBKwsk1_4loro7serviceNtB6_11LoroService22get_large_model_stream00Cs87FlaAfIID6_19http_endpoints_test
FN:508,_RNCNCNvMNtCscf95YBKwsk1_4loro7serviceNtB6_11LoroService22get_large_model_stream0s0_0Cs87FlaAfIID6_19http_endpoints_test
FN:470,_RNCNCNvMNtCscf95YBKwsk1_4loro7serviceNtB6_11LoroService22get_large_model_stream0s_0Cs87FlaAfIID6_19http_endpoints_test
FN:191,_RNCNCNvMNtCscf95YBKwsk1_4loro7serviceNtB6_11LoroService22stream_direct_response00Cs87FlaAfIID6_19http_endpoints_test
FN:213,_RNCNCNvMNtCscf95YBKwsk1_4loro7serviceNtB6_11LoroService22stream_direct_response0s_0Cs87FlaAfIID6_19http_endpoints_test
FN:713,_RNCNvMNtCscf95YBKwsk1_4loro7serviceNtB4_11LoroService11get_metrics0Cs87FlaAfIID6_19http_endpoints_test
FN:736,_RNCNvMNtCscf95YBKwsk1_4loro7serviceNtB4_11LoroService13reset_metrics0Cs87FlaAfIID6_19http_endpoints_test
FN:63,_RNCNvMNtCscf95YBKwsk1_4loro7serviceNtB4_11LoroService15chat_completion0Cs87FlaAfIID6_19http_endpoints_test
FN:249,_RNCNvMNtCscf95YBKwsk1_4loro7serviceNtB4_11LoroService16call_small_model0Cs87FlaAfIID6_19http_endpoints_test
FN:218,_RNCNvMNtCscf95YBKwsk1_4loro7serviceNtB4_11LoroService18get_quick_response0Cs87FlaAfIID6_19http_endpoints_test
FN:91,_RNCNvMNtCscf95YBKwsk1_4loro7serviceNtB4_11LoroService21stream_quick_response0Cs87FlaAfIID6_19http_endpoints_test
FN:415,_RNCNvMNtCscf95YBKwsk1_4loro7serviceNtB4_11LoroService22get_large_model_stream0Cs87FlaAfIID6_19http_endpoints_test
FN:186,_RNCNvMNtCscf95YBKwsk1_4loro7serviceNtB4_11LoroService22stream_direct_response0Cs87FlaAfIID6_19http_endpoints_test
FN:37,_RNCNvMNtCscf95YBKwsk1_4loro7serviceNtB4_11LoroService3new0Cs87FlaAfIID6_19http_endpoints_test
FN:744,_RINvNtCscf95YBKwsk1_4loro7service18execute_with_retryNCNCNvMB2_NtB2_11LoroService16call_small_model0s_0NtNtNtCs8MIZS7aWa8c_7reqwest10async_impl8response8ResponseNtCsdv8H5wLNKRh_6anyhow5ErrorECscQZipz51Wea_16integration_test
FN:744,_RINvNtCscf95YBKwsk1_4loro7service18execute_with_retryNCNCNvMB2_NtB2_11LoroService22get_large_model_stream0s_0NtNtNtCs8MIZS7aWa8c_7reqwest10async_impl8response8ResponseNtCsdv8H5wLNKRh_6anyhow5ErrorECscQZipz51Wea_16integration_test
FN:752,_RNCINvNtCscf95YBKwsk1_4loro7service18execute_with_retryNCNCNvMB4_NtB4_11LoroService16call_small_model0s_0NtNtNtCs8MIZS7aWa8c_7reqwest10async_impl8response8ResponseNtCsdv8H5wLNKRh_6anyhow5ErrorE0CscQZipz51Wea_16integration_test
FN:752,_RNCINvNtCscf95YBKwsk1_4loro7service18execute_with_retryNCNCNvMB4_NtB4_11LoroService22get_large_model_stream0s_0NtNtNtCs8MIZS7aWa8c_7reqwest10async_impl8response8ResponseNtCsdv8H5wLNKRh_6anyhow5ErrorE0CscQZipz51Wea_16integration_test
FN:352,_RNCNCNCNCNvMNtCscf95YBKwsk1_4loro7serviceNtBa_11LoroService16call_small_model0s_0s_00CscQZipz51Wea_16integration_test
FN:353,_RNCNCNCNCNvMNtCscf95YBKwsk1_4loro7serviceNtBa_11LoroService16call_small_model0s_0s_0s_0CscQZipz51Wea_16integration_test
FN:483,_RNCNCNCNCNvMNtCscf95YBKwsk1_4loro7serviceNtBa_11LoroService22get_large_model_stream0s_0s_00CscQZipz51Wea_16integration_test
FN:343,_RNCNCNCNvMNtCscf95YBKwsk1_4loro7serviceNtB8_11LoroService16call_small_model0s_00CscQZipz51Wea_16integration_test
FN:349,_RNCNCNCNvMNtCscf95YBKwsk1_4loro7serviceNtB8_11LoroService16call_small_model0s_0s_0CscQZipz51Wea_16integration_test
FN:474,_RNCNCNCNvMNtCscf95YBKwsk1_4loro7serviceNtB8_11LoroService22get_large_model_stream0s_00CscQZipz51Wea_16integration_test
FN:479,_RNCNCNCNvMNtCscf95YBKwsk1_4loro7serviceNtB8_11LoroService22get_large_model_stream0s_0s_0CscQZipz51Wea_16integration_test
FN:77,_RNCNCNvMNtCscf95YBKwsk1_4loro7serviceNtB6_11LoroService15chat_completion00CscQZipz51Wea_16integration_test
FN:335,_RNCNCNvMNtCscf95YBKwsk1_4loro7serviceNtB6_11LoroService16call_small_model00CscQZipz51Wea_16integration_test
FN:389,_RNCNCNvMNtCscf95YBKwsk1_4loro7serviceNtB6_11LoroService16call_small_model0s0_0CscQZipz51Wea_16integration_test
FN:390,_RNCNCNvMNtCscf95YBKwsk1_4loro7serviceNtB6_11LoroService16call_small_model0s1_0CscQZipz51Wea_16integration_test
FN:391,_RNCNCNvMNtCscf95YBKwsk1_4loro7serviceNtB6_11LoroService16call_small_model0s2_0CscQZipz51Wea_16integration_test
FN:339,_RNCNCNvMNtCscf95YBKwsk1_4loro7serviceNtB6_11LoroService16call_small_model0s_0CscQZipz51Wea_16integration_test
FN:154,_RNCNCNvMNtCscf95YBKwsk1_4loro7serviceNtB6_11LoroService21stream_quick_response00CscQZipz51Wea_16integration_test
FN:178,_RNCNCNvMNtCscf95YBKwsk1_4loro7serviceNtB6_11LoroService21stream_quick_response0s0_0CscQZipz51Wea_16integration_test
FN:176,_RNCNCNvMNtCscf95YBKwsk1_4loro7serviceNtB6_11LoroService21stream_quick_response0s_0CscQZipz51Wea_16integration_test
FN:468,_RNCNCNvMNtCscf95YBKwsk1_4loro7serviceNtB6_11LoroService22get_large_model_stream00CscQZipz51Wea_16integration_test
FN:508,_RNCNCNvMNtCscf95YBKwsk1_4loro7serviceNtB6_11LoroService22get_large_model_stream0s0_0CscQZipz51Wea_16integration_test
FN:470,_RNCNCNvMNtCscf95YBKwsk1_4loro7serviceNtB6_11LoroService22get_large_model_stream0s_0CscQZipz51Wea_16integration_test
FN:191,_RNCNCNvMNtCscf95YBKwsk1_4loro7serviceNtB6_11LoroService22stream_direct_response00CscQZipz51Wea_16integration_test
FN:213,_RNCNCNvMNtCscf95YBKwsk1_4loro7serviceNtB6_11LoroService22stream_direct_response0s_0CscQZipz51Wea_16integration_test
FN:63,_RNCNvMNtCscf95YBKwsk1_4loro7serviceNtB4_11LoroService15chat_completion0CscQZipz51Wea_16integration_test
FN:249,_RNCNvMNtCscf95YBKwsk1_4loro7serviceNtB4_11LoroService16call_small_model0CscQZipz51Wea_16integration_test
FN:218,_RNCNvMNtCscf95YBKwsk1_4loro7serviceNtB4_11LoroService18get_quick_response0CscQZipz51Wea_16integration_test
FN:91,_RNCNvMNtCscf95YBKwsk1_4loro7serviceNtB4_11LoroService21stream_quick_response0CscQZipz51Wea_16integration_test
FN:415,_RNCNvMNtCscf95YBKwsk1_4loro7serviceNtB4_11LoroService22get_large_model_stream0CscQZipz51Wea_16integration_test
FN:186,_RNCNvMNtCscf95YBKwsk1_4loro7serviceNtB4_11LoroService22stream_direct_response0CscQZipz51Wea_16integration_test
FN:37,_RNCNvMNtCscf95YBKwsk1_4loro7serviceNtB4_11LoroService3new0CscQZipz51Wea_16integration_test
FN:744,_RINvNtCscf95YBKwsk1_4loro7service18execute_with_retryNCNCNvMB2_NtB2_11LoroService16call_small_model0s_0NtNtNtCs8MIZS7aWa8c_7reqwest10async_impl8response8ResponseNtCsdv8H5wLNKRh_6anyhow5ErrorECscHcYy1Qx0uY_4loro
FN:744,_RINvNtCscf95YBKwsk1_4loro7service18execute_with_retryNCNCNvMB2_NtB2_11LoroService22get_large_model_stream0s_0NtNtNtCs8MIZS7aWa8c_7reqwest10async_impl8response8ResponseNtCsdv8H5wLNKRh_6anyhow5ErrorECscHcYy1Qx0uY_4loro
FN:752,_RNCINvNtCscf95YBKwsk1_4loro7service18execute_with_retryNCNCNvMB4_NtB4_11LoroService16call_small_model0s_0NtNtNtCs8MIZS7aWa8c_7reqwest10async_impl8response8ResponseNtCsdv8H5wLNKRh_6anyhow5ErrorE0CscHcYy1Qx0uY_4loro
FN:752,_RNCINvNtCscf95YBKwsk1_4loro7service18execute_with_retryNCNCNvMB4_NtB4_11LoroService22get_large_model_stream0s_0NtNtNtCs8MIZS7aWa8c_7reqwest10async_impl8response8ResponseNtCsdv8H5wLNKRh_6anyhow5ErrorE0CscHcYy1Qx0uY_4loro
FN:352,_RNCNCNCNCNvMNtCscf95YBKwsk1_4loro7serviceNtBa_11LoroService16call_small_model0s_0s_00CscHcYy1Qx0uY_4loro
FN:353,_RNCNCNCNCNvMNtCscf95YBKwsk1_4loro7serviceNtBa_11LoroService16call_small_model0s_0s_0s_0CscHcYy1Qx0uY_4loro
FN:483,_RNCNCNCNCNvMNtCscf95YBKwsk1_4loro7serviceNtBa_11LoroService22get_large_model_stream0s_0s_00CscHcYy1Qx0uY_4loro
FN:343,_RNCNCNCNvMNtCscf95YBKwsk1_4loro7serviceNtB8_11LoroService16call_small_model0s_00CscHcYy1Qx0uY_4loro
FN:349,_RNCNCNCNvMNtCscf95YBKwsk1_4loro7serviceNtB8_11LoroService16call_small_model0s_0s_0CscHcYy1Qx0uY_4loro
FN:474,_RNCNCNCNvMNtCscf95YBKwsk1_4loro7serviceNtB8_11LoroService22get_large_model_stream0s_00CscHcYy1Qx0uY_4loro
FN:479,_RNCNCNCNvMNtCscf95YBKwsk1_4loro7serviceNtB8_11LoroService22get_large_model_stream0s_0s_0CscHcYy1Qx0uY_4loro
FN:77,_RNCNCNvMNtCscf95YBKwsk1_4loro7serviceNtB6_11LoroService15chat_completion00CscHcYy1Qx0uY_4loro
FN:335,_RNCNCNvMNtCscf95YBKwsk1_4loro7serviceNtB6_11LoroService16call_small_model00CscHcYy1Qx0uY_4loro
FN:389,_RNCNCNvMNtCscf95YBKwsk1_4loro7serviceNtB6_11LoroService16call_small_model0s0_0CscHcYy1Qx0uY_4loro
FN:390,_RNCNCNvMNtCscf95YBKwsk1_4loro7serviceNtB6_11LoroService16call_small_model0s1_0CscHcYy1Qx0uY_4loro
FN:391,_RNCNCNvMNtCscf95YBKwsk1_4loro7serviceNtB6_11LoroService16call_small_model0s2_0CscHcYy1Qx0uY_4loro
FN:339,_RNCNCNvMNtCscf95YBKwsk1_4loro7serviceNtB6_11LoroService16call_small_model0s_0CscHcYy1Qx0uY_4loro
FN:154,_RNCNCNvMNtCscf95YBKwsk1_4loro7serviceNtB6_11LoroService21stream_quick_response00CscHcYy1Qx0uY_4loro
FN:178,_RNCNCNvMNtCscf95YBKwsk1_4loro7serviceNtB6_11LoroService21stream_quick_response0s0_0CscHcYy1Qx0uY_4loro
FN:176,_RNCNCNvMNtCscf95YBKwsk1_4loro7serviceNtB6_11LoroService21stream_quick_response0s_0CscHcYy1Qx0uY_4loro
FN:468,_RNCNCNvMNtCscf95YBKwsk1_4loro7serviceNtB6_11LoroService22get_large_model_stream00CscHcYy1Qx0uY_4loro
FN:508,_RNCNCNvMNtCscf95YBKwsk1_4loro7serviceNtB6_11LoroService22get_large_model_stream0s0_0CscHcYy1Qx0uY_4loro
FN:470,_RNCNCNvMNtCscf95YBKwsk1_4loro7serviceNtB6_11LoroService22get_large_model_stream0s_0CscHcYy1Qx0uY_4loro
FN:191,_RNCNCNvMNtCscf95YBKwsk1_4loro7serviceNtB6_11LoroService22stream_direct_response00CscHcYy1Qx0uY_4loro
FN:213,_RNCNCNvMNtCscf95YBKwsk1_4loro7serviceNtB6_11LoroService22stream_direct_response0s_0CscHcYy1Qx0uY_4loro
FN:713,_RNCNvMNtCscf95YBKwsk1_4loro7serviceNtB4_11LoroService11get_metrics0CscHcYy1Qx0uY_4loro
FN:736,_RNCNvMNtCscf95YBKwsk1_4loro7serviceNtB4_11LoroService13reset_metrics0CscHcYy1Qx0uY_4loro
FN:63,_RNCNvMNtCscf95YBKwsk1_4loro7serviceNtB4_11LoroService15chat_completion0CscHcYy1Qx0uY_4loro
FN:249,_RNCNvMNtCscf95YBKwsk1_4loro7serviceNtB4_11LoroService16call_small_model0CscHcYy1Qx0uY_4loro
FN:218,_RNCNvMNtCscf95YBKwsk1_4loro7serviceNtB4_11LoroService18get_quick_response0CscHcYy1Qx0uY_4loro
FN:91,_RNCNvMNtCscf95YBKwsk1_4loro7serviceNtB4_11LoroService21stream_quick_response0CscHcYy1Qx0uY_4loro
FN:415,_RNCNvMNtCscf95YBKwsk1_4loro7serviceNtB4_11LoroService22get_large_model_stream0CscHcYy1Qx0uY_4loro
FN:186,_RNCNvMNtCscf95YBKwsk1_4loro7serviceNtB4_11LoroService22stream_direct_response0CscHcYy1Qx0uY_4loro
FN:37,_RNCNvMNtCscf95YBKwsk1_4loro7serviceNtB4_11LoroService3new0CscHcYy1Qx0uY_4loro
FN:744,_RINvNtCs6IJppu6JJIH_4loro7service18execute_with_retrypppEB4_
FN:752,_RNCINvNtCs6IJppu6JJIH_4loro7service18execute_with_retrypppE0B6_
FN:352,_RNCNCNCNCNvMNtCs6IJppu6JJIH_4loro7serviceNtBa_11LoroService16call_small_model0s_0s_00Bc_
FN:353,_RNCNCNCNCNvMNtCs6IJppu6JJIH_4loro7serviceNtBa_11LoroService16call_small_model0s_0s_0s_0Bc_
FN:483,_RNCNCNCNCNvMNtCs6IJppu6JJIH_4loro7serviceNtBa_11LoroService22get_large_model_stream0s_0s_00Bc_
FN:343,_RNCNCNCNvMNtCs6IJppu6JJIH_4loro7serviceNtB8_11LoroService16call_small_model0s_00Ba_
FN:349,_RNCNCNCNvMNtCs6IJppu6JJIH_4loro7serviceNtB8_11LoroService16call_small_model0s_0s_0Ba_
FN:474,_RNCNCNCNvMNtCs6IJppu6JJIH_4loro7serviceNtB8_11LoroService22get_large_model_stream0s_00Ba_
FN:479,_RNCNCNCNvMNtCs6IJppu6JJIH_4loro7serviceNtB8_11LoroService22get_large_model_stream0s_0s_0Ba_
FN:77,_RNCNCNvMNtCs6IJppu6JJIH_4loro7serviceNtB6_11LoroService15chat_completion00B8_
FN:335,_RNCNCNvMNtCs6IJppu6JJIH_4loro7serviceNtB6_11LoroService16call_small_model00B8_
FN:389,_RNCNCNvMNtCs6IJppu6JJIH_4loro7serviceNtB6_11LoroService16call_small_model0s0_0B8_
FN:390,_RNCNCNvMNtCs6IJppu6JJIH_4loro7serviceNtB6_11LoroService16call_small_model0s1_0B8_
FN:391,_RNCNCNvMNtCs6IJppu6JJIH_4loro7serviceNtB6_11LoroService16call_small_model0s2_0B8_
FN:339,_RNCNCNvMNtCs6IJppu6JJIH_4loro7serviceNtB6_11LoroService16call_small_model0s_0B8_
FN:154,_RNCNCNvMNtCs6IJppu6JJIH_4loro7serviceNtB6_11LoroService21stream_quick_response00B8_
FN:178,_RNCNCNvMNtCs6IJppu6JJIH_4loro7serviceNtB6_11LoroService21stream_quick_response0s0_0B8_
FN:176,_RNCNCNvMNtCs6IJppu6JJIH_4loro7serviceNtB6_11LoroService21stream_quick_response0s_0B8_
FN:468,_RNCNCNvMNtCs6IJppu6JJIH_4loro7serviceNtB6_11LoroService22get_large_model_stream00B8_
FN:508,_RNCNCNvMNtCs6IJppu6JJIH_4loro7serviceNtB6_11LoroService22get_large_model_stream0s0_0B8_
FN:470,_RNCNCNvMNtCs6IJppu6JJIH_4loro7serviceNtB6_11LoroService22get_large_model_stream0s_0B8_
FN:191,_RNCNCNvMNtCs6IJppu6JJIH_4loro7serviceNtB6_11LoroService22stream_direct_response00B8_
FN:213,_RNCNCNvMNtCs6IJppu6JJIH_4loro7serviceNtB6_11LoroService22stream_direct_response0s_0B8_
FN:713,_RNCNvMNtCs6IJppu6JJIH_4loro7serviceNtB4_11LoroService11get_metrics0B6_
FN:736,_RNCNvMNtCs6IJppu6JJIH_4loro7serviceNtB4_11LoroService13reset_metrics0B6_
FN:63,_RNCNvMNtCs6IJppu6JJIH_4loro7serviceNtB4_11LoroService15chat_completion0B6_
FN:249,_RNCNvMNtCs6IJppu6JJIH_4loro7serviceNtB4_11LoroService16call_small_model0B6_
FN:218,_RNCNvMNtCs6IJppu6JJIH_4loro7serviceNtB4_11LoroService18get_quick_response0B6_
FN:91,_RNCNvMNtCs6IJppu6JJIH_4loro7serviceNtB4_11LoroService21stream_quick_response0B6_
FN:415,_RNCNvMNtCs6IJppu6JJIH_4loro7serviceNtB4_11LoroService22get_large_model_stream0B6_
FN:186,_RNCNvMNtCs6IJppu6JJIH_4loro7serviceNtB4_11LoroService22stream_direct_response0B6_
FN:404,_RNCNvMNtCs6IJppu6JJIH_4loro7serviceNtB4_11LoroService29is_appropriate_quick_response0B6_
FN:37,_RNCNvMNtCs6IJppu6JJIH_4loro7serviceNtB4_11LoroService3new0B6_
FN:713,_RNvMNtCs6IJppu6JJIH_4loro7serviceNtB2_11LoroService11get_metrics
FN:736,_RNvMNtCs6IJppu6JJIH_4loro7serviceNtB2_11LoroService13reset_metrics
FN:63,_RNvMNtCs6IJppu6JJIH_4loro7serviceNtB2_11LoroService15chat_completion
FN:249,_RNvMNtCs6IJppu6JJIH_4loro7serviceNtB2_11LoroService16call_small_model
FN:218,_RNvMNtCs6IJppu6JJIH_4loro7serviceNtB2_11LoroService18get_quick_response
FN:88,_RNvMNtCs6IJppu6JJIH_4loro7serviceNtB2_11LoroService21stream_quick_response
FN:411,_RNvMNtCs6IJppu6JJIH_4loro7serviceNtB2_11LoroService22get_large_model_stream
FN:183,_RNvMNtCs6IJppu6JJIH_4loro7serviceNtB2_11LoroService22stream_direct_response
FN:599,_RNvMNtCs6IJppu6JJIH_4loro7serviceNtB2_11LoroService23process_sse_line_static
FN:398,_RNvMNtCs6IJppu6JJIH_4loro7serviceNtB2_11LoroService29is_appropriate_quick_response
FN:37,_RNvMNtCs6IJppu6JJIH_4loro7serviceNtB2_11LoroService3new
FN:713,_RNCNvMNtCscf95YBKwsk1_4loro7serviceNtB4_11LoroService11get_metrics0Cs92scKuNjJE2_18service_error_test
FN:736,_RNCNvMNtCscf95YBKwsk1_4loro7serviceNtB4_11LoroService13reset_metrics0Cs92scKuNjJE2_18service_error_test
FN:37,_RNCNvMNtCscf95YBKwsk1_4loro7serviceNtB4_11LoroService3new0Cs92scKuNjJE2_18service_error_test
FNDA:6,_RNvMNtCscf95YBKwsk1_4loro7serviceNtB2_11LoroService11get_metrics
FNDA:4,_RNvMNtCscf95YBKwsk1_4loro7serviceNtB2_11LoroService13reset_metrics
FNDA:7,_RNvMNtCscf95YBKwsk1_4loro7serviceNtB2_11LoroService15chat_completion
FNDA:6,_RNvMNtCscf95YBKwsk1_4loro7serviceNtB2_11LoroService16call_small_model
FNDA:6,_RNvMNtCscf95YBKwsk1_4loro7serviceNtB2_11LoroService18get_quick_response
FNDA:6,_RNvMNtCscf95YBKwsk1_4loro7serviceNtB2_11LoroService21stream_quick_response
FNDA:7,_RNvMNtCscf95YBKwsk1_4loro7serviceNtB2_11LoroService22get_large_model_stream
FNDA:1,_RNvMNtCscf95YBKwsk1_4loro7serviceNtB2_11LoroService22stream_direct_response
FNDA:7,_RNvMNtCscf95YBKwsk1_4loro7serviceNtB2_11LoroService23process_sse_line_static
FNDA:0,_RNvMNtCscf95YBKwsk1_4loro7serviceNtB2_11LoroService29is_appropriate_quick_response
FNDA:22,_RNvMNtCscf95YBKwsk1_4loro7serviceNtB2_11LoroService3new
FNDA:0,_RNCNvMNtCscf95YBKwsk1_4loro7serviceNtB4_11LoroService29is_appropriate_quick_response0B6_
FNDA:1,_RINvNtCscf95YBKwsk1_4loro7service18execute_with_retryNCNCNvMB2_NtB2_11LoroService16call_small_model0s_0NtNtNtCs8MIZS7aWa8c_7reqwest10async_impl8response8ResponseNtCsdv8H5wLNKRh_6anyhow5ErrorECslPFJwxeckmV_15end_to_end_test
FNDA:2,_RINvNtCscf95YBKwsk1_4loro7service18execute_with_retryNCNCNvMB2_NtB2_11LoroService22get_large_model_stream0s_0NtNtNtCs8MIZS7aWa8c_7reqwest10async_impl8response8ResponseNtCsdv8H5wLNKRh_6anyhow5ErrorECslPFJwxeckmV_15end_to_end_test
FNDA:1,_RNCINvNtCscf95YBKwsk1_4loro7service18execute_with_retryNCNCNvMB4_NtB4_11LoroService16call_small_model0s_0NtNtNtCs8MIZS7aWa8c_7reqwest10async_impl8response8ResponseNtCsdv8H5wLNKRh_6anyhow5ErrorE0CslPFJwxeckmV_15end_to_end_test
FNDA:2,_RNCINvNtCscf95YBKwsk1_4loro7service18execute_with_retryNCNCNvMB4_NtB4_11LoroService22get_large_model_stream0s_0NtNtNtCs8MIZS7aWa8c_7reqwest10async_impl8response8ResponseNtCsdv8H5wLNKRh_6anyhow5ErrorE0CslPFJwxeckmV_15end_to_end_test
FNDA:0,_RNCNCNCNCNvMNtCscf95YBKwsk1_4loro7serviceNtBa_11LoroService16call_small_model0s_0s_00CslPFJwxeckmV_15end_to_end_test
FNDA:4,_RNCNCNCNCNvMNtCscf95YBKwsk1_4loro7serviceNtBa_11LoroService16call_small_model0s_0s_0s_0CslPFJwxeckmV_15end_to_end_test
FNDA:8,_RNCNCNCNCNvMNtCscf95YBKwsk1_4loro7serviceNtBa_11LoroService22get_large_model_stream0s_0s_00CslPFJwxeckmV_15end_to_end_test
FNDA:0,_RNCNCNCNvMNtCscf95YBKwsk1_4loro7serviceNtB8_11LoroService16call_small_model0s_00CslPFJwxeckmV_15end_to_end_test
FNDA:4,_RNCNCNCNvMNtCscf95YBKwsk1_4loro7serviceNtB8_11LoroService16call_small_model0s_0s_0CslPFJwxeckmV_15end_to_end_test
FNDA:0,_RNCNCNCNvMNtCscf95YBKwsk1_4loro7serviceNtB8_11LoroService22get_large_model_stream0s_00CslPFJwxeckmV_15end_to_end_test
FNDA:8,_RNCNCNCNvMNtCscf95YBKwsk1_4loro7serviceNtB8_11LoroService22get_large_model_stream0s_0s_0CslPFJwxeckmV_15end_to_end_test
FNDA:0,_RNCNCNvMNtCscf95YBKwsk1_4loro7serviceNtB6_11LoroService15chat_completion00CslPFJwxeckmV_15end_to_end_test
FNDA:0,_RNCNCNvMNtCscf95YBKwsk1_4loro7serviceNtB6_11LoroService16call_small_model00CslPFJwxeckmV_15end_to_end_test
FNDA:0,_RNCNCNvMNtCscf95YBKwsk1_4loro7serviceNtB6_11LoroService16call_small_model0s0_0CslPFJwxeckmV_15end_to_end_test
FNDA:0,_RNCNCNvMNtCscf95YBKwsk1_4loro7serviceNtB6_11LoroService16call_small_model0s1_0CslPFJwxeckmV_15end_to_end_test
FNDA:0,_RNCNCNvMNtCscf95YBKwsk1_4loro7serviceNtB6_11LoroService16call_small_model0s2_0CslPFJwxeckmV_15end_to_end_test
FNDA:4,_RNCNCNvMNtCscf95YBKwsk1_4loro7serviceNtB6_11LoroService16call_small_model0s_0CslPFJwxeckmV_15end_to_end_test
FNDA:0,_RNCNCNvMNtCscf95YBKwsk1_4loro7serviceNtB6_11LoroService21stream_quick_response00CslPFJwxeckmV_15end_to_end_test
FNDA:0,_RNCNCNvMNtCscf95YBKwsk1_4loro7serviceNtB6_11LoroService21stream_quick_response0s0_0CslPFJwxeckmV_15end_to_end_test
FNDA:0,_RNCNCNvMNtCscf95YBKwsk1_4loro7serviceNtB6_11LoroService21stream_quick_response0s_0CslPFJwxeckmV_15end_to_end_test
FNDA:0,_RNCNCNvMNtCscf95YBKwsk1_4loro7serviceNtB6_11LoroService22get_large_model_stream00CslPFJwxeckmV_15end_to_end_test
FNDA:0,_RNCNCNvMNtCscf95YBKwsk1_4loro7serviceNtB6_11LoroService22get_large_model_stream0s0_0CslPFJwxeckmV_15end_to_end_test
FNDA:8,_RNCNCNvMNtCscf95YBKwsk1_4loro7serviceNtB6_11LoroService22get_large_model_stream0s_0CslPFJwxeckmV_15end_to_end_test
FNDA:0,_RNCNCNvMNtCscf95YBKwsk1_4loro7serviceNtB6_11LoroService22stream_direct_response00CslPFJwxeckmV_15end_to_end_test
FNDA:0,_RNCNCNvMNtCscf95YBKwsk1_4loro7serviceNtB6_11LoroService22stream_direct_response0s_0CslPFJwxeckmV_15end_to_end_test
FNDA:3,_RNCNvMNtCscf95YBKwsk1_4loro7serviceNtB4_11LoroService11get_metrics0CslPFJwxeckmV_15end_to_end_test
FNDA:2,_RNCNvMNtCscf95YBKwsk1_4loro7serviceNtB4_11LoroService13reset_metrics0CslPFJwxeckmV_15end_to_end_test
FNDA:2,_RNCNvMNtCscf95YBKwsk1_4loro7serviceNtB4_11LoroService15chat_completion0CslPFJwxeckmV_15end_to_end_test
FNDA:1,_RNCNvMNtCscf95YBKwsk1_4loro7serviceNtB4_11LoroService16call_small_model0CslPFJwxeckmV_15end_to_end_test
FNDA:1,_RNCNvMNtCscf95YBKwsk1_4loro7serviceNtB4_11LoroService18get_quick_response0CslPFJwxeckmV_15end_to_end_test
FNDA:1,_RNCNvMNtCscf95YBKwsk1_4loro7serviceNtB4_11LoroService21stream_quick_response0CslPFJwxeckmV_15end_to_end_test
FNDA:2,_RNCNvMNtCscf95YBKwsk1_4loro7serviceNtB4_11LoroService22get_large_model_stream0CslPFJwxeckmV_15end_to_end_test
FNDA:1,_RNCNvMNtCscf95YBKwsk1_4loro7serviceNtB4_11LoroService22stream_direct_response0CslPFJwxeckmV_15end_to_end_test
FNDA:4,_RNCNvMNtCscf95YBKwsk1_4loro7serviceNtB4_11LoroService3new0CslPFJwxeckmV_15end_to_end_test
FNDA:0,_RINvNtCscf95YBKwsk1_4loro7service18execute_with_retryNCNCNvMB2_NtB2_11LoroService16call_small_model0s_0NtNtNtCs8MIZS7aWa8c_7reqwest10async_impl8response8ResponseNtCsdv8H5wLNKRh_6anyhow5ErrorECs87FlaAfIID6_19http_endpoints_test
FNDA:0,_RINvNtCscf95YBKwsk1_4loro7service18execute_with_retryNCNCNvMB2_NtB2_11LoroService22get_large_model_stream0s_0NtNtNtCs8MIZS7aWa8c_7reqwest10async_impl8response8ResponseNtCsdv8H5wLNKRh_6anyhow5ErrorECs87FlaAfIID6_19http_endpoints_test
FNDA:0,_RNCINvNtCscf95YBKwsk1_4loro7service18execute_with_retryNCNCNvMB4_NtB4_11LoroService16call_small_model0s_0NtNtNtCs8MIZS7aWa8c_7reqwest10async_impl8response8ResponseNtCsdv8H5wLNKRh_6anyhow5ErrorE0Cs87FlaAfIID6_19http_endpoints_test
FNDA:0,_RNCINvNtCscf95YBKwsk1_4loro7service18execute_with_retryNCNCNvMB4_NtB4_11LoroService22get_large_model_stream0s_0NtNtNtCs8MIZS7aWa8c_7reqwest10async_impl8response8ResponseNtCsdv8H5wLNKRh_6anyhow5ErrorE0Cs87FlaAfIID6_19http_endpoints_test
FNDA:0,_RNCNCNCNCNvMNtCscf95YBKwsk1_4loro7serviceNtBa_11LoroService16call_small_model0s_0s_00Cs87FlaAfIID6_19http_endpoints_test
FNDA:0,_RNCNCNCNCNvMNtCscf95YBKwsk1_4loro7serviceNtBa_11LoroService16call_small_model0s_0s_0s_0Cs87FlaAfIID6_19http_endpoints_test
FNDA:0,_RNCNCNCNCNvMNtCscf95YBKwsk1_4loro7serviceNtBa_11LoroService22get_large_model_stream0s_0s_00Cs87FlaAfIID6_19http_endpoints_test
FNDA:0,_RNCNCNCNvMNtCscf95YBKwsk1_4loro7serviceNtB8_11LoroService16call_small_model0s_00Cs87FlaAfIID6_19http_endpoints_test
FNDA:0,_RNCNCNCNvMNtCscf95YBKwsk1_4loro7serviceNtB8_11LoroService16call_small_model0s_0s_0Cs87FlaAfIID6_19http_endpoints_test
FNDA:0,_RNCNCNCNvMNtCscf95YBKwsk1_4loro7serviceNtB8_11LoroService22get_large_model_stream0s_00Cs87FlaAfIID6_19http_endpoints_test
FNDA:0,_RNCNCNCNvMNtCscf95YBKwsk1_4loro7serviceNtB8_11LoroService22get_large_model_stream0s_0s_0Cs87FlaAfIID6_19http_endpoints_test
FNDA:0,_RNCNCNvMNtCscf95YBKwsk1_4loro7serviceNtB6_11LoroService15chat_completion00Cs87FlaAfIID6_19http_endpoints_test
FNDA:0,_RNCNCNvMNtCscf95YBKwsk1_4loro7serviceNtB6_11LoroService16call_small_model00Cs87FlaAfIID6_19http_endpoints_test
FNDA:0,_RNCNCNvMNtCscf95YBKwsk1_4loro7serviceNtB6_11LoroService16call_small_model0s0_0Cs87FlaAfIID6_19http_endpoints_test
FNDA:0,_RNCNCNvMNtCscf95YBKwsk1_4loro7serviceNtB6_11LoroService16call_small_model0s1_0Cs87FlaAfIID6_19http_endpoints_test
FNDA:0,_RNCNCNvMNtCscf95YBKwsk1_4loro7serviceNtB6_11LoroService16call_small_model0s2_0Cs87FlaAfIID6_19http_endpoints_test
FNDA:0,_RNCNCNvMNtCscf95YBKwsk1_4loro7serviceNtB6_11LoroService16call_small_model0s_0Cs87FlaAfIID6_19http_endpoints_test
FNDA:0,_RNCNCNvMNtCscf95YBKwsk1_4loro7serviceNtB6_11LoroService21stream_quick_response00Cs87FlaAfIID6_19http_endpoints_test
FNDA:0,_RNCNCNvMNtCscf95YBKwsk1_4loro7serviceNtB6_11LoroService21stream_quick_response0s0_0Cs87FlaAfIID6_19http_endpoints_test
FNDA:0,_RNCNCNvMNtCscf95YBKwsk1_4loro7serviceNtB6_11LoroService21stream_quick_response0s_0Cs87FlaAfIID6_19http_endpoints_test
FNDA:0,_RNCNCNvMNtCscf95YBKwsk1_4loro7serviceNtB6_11LoroService22get_large_model_stream00Cs87FlaAfIID6_19http_endpoints_test
FNDA:0,_RNCNCNvMNtCscf95YBKwsk1_4loro7serviceNtB6_11LoroService22get_large_model_stream0s0_0Cs87FlaAfIID6_19http_endpoints_test
FNDA:0,_RNCNCNvMNtCscf95YBKwsk1_4loro7serviceNtB6_11LoroService22get_large_model_stream0s_0Cs87FlaAfIID6_19http_endpoints_test
FNDA:0,_RNCNCNvMNtCscf95YBKwsk1_4loro7serviceNtB6_11LoroService22stream_direct_response00Cs87FlaAfIID6_19http_endpoints_test
FNDA:0,_RNCNCNvMNtCscf95YBKwsk1_4loro7serviceNtB6_11LoroService22stream_direct_response0s_0Cs87FlaAfIID6_19http_endpoints_test
FNDA:1,_RNCNvMNtCscf95YBKwsk1_4loro7serviceNtB4_11LoroService11get_metrics0Cs87FlaAfIID6_19http_endpoints_test
FNDA:1,_RNCNvMNtCscf95YBKwsk1_4loro7serviceNtB4_11LoroService13reset_metrics0Cs87FlaAfIID6_19http_endpoints_test
FNDA:0,_RNCNvMNtCscf95YBKwsk1_4loro7serviceNtB4_11LoroService15chat_completion0Cs87FlaAfIID6_19http_endpoints_test
FNDA:0,_RNCNvMNtCscf95YBKwsk1_4loro7serviceNtB4_11LoroService16call_small_model0Cs87FlaAfIID6_19http_endpoints_test
FNDA:0,_RNCNvMNtCscf95YBKwsk1_4loro7serviceNtB4_11LoroService18get_quick_response0Cs87FlaAfIID6_19http_endpoints_test
FNDA:0,_RNCNvMNtCscf95YBKwsk1_4loro7serviceNtB4_11LoroService21stream_quick_response0Cs87FlaAfIID6_19http_endpoints_test
FNDA:0,_RNCNvMNtCscf95YBKwsk1_4loro7serviceNtB4_11LoroService22get_large_model_stream0Cs87FlaAfIID6_19http_endpoints_test
FNDA:0,_RNCNvMNtCscf95YBKwsk1_4loro7serviceNtB4_11LoroService22stream_direct_response0Cs87FlaAfIID6_19http_endpoints_test
FNDA:10,_RNCNvMNtCscf95YBKwsk1_4loro7serviceNtB4_11LoroService3new0Cs87FlaAfIID6_19http_endpoints_test
FNDA:5,_RINvNtCscf95YBKwsk1_4loro7service18execute_with_retryNCNCNvMB2_NtB2_11LoroService16call_small_model0s_0NtNtNtCs8MIZS7aWa8c_7reqwest10async_impl8response8ResponseNtCsdv8H5wLNKRh_6anyhow5ErrorECscQZipz51Wea_16integration_test
FNDA:5,_RINvNtCscf95YBKwsk1_4loro7service18execute_with_retryNCNCNvMB2_NtB2_11LoroService22get_large_model_stream0s_0NtNtNtCs8MIZS7aWa8c_7reqwest10async_impl8response8ResponseNtCsdv8H5wLNKRh_6anyhow5ErrorECscQZipz51Wea_16integration_test
FNDA:5,_RNCINvNtCscf95YBKwsk1_4loro7service18execute_with_retryNCNCNvMB4_NtB4_11LoroService16call_small_model0s_0NtNtNtCs8MIZS7aWa8c_7reqwest10async_impl8response8ResponseNtCsdv8H5wLNKRh_6anyhow5ErrorE0CscQZipz51Wea_16integration_test
FNDA:5,_RNCINvNtCscf95YBKwsk1_4loro7service18execute_with_retryNCNCNvMB4_NtB4_11LoroService22get_large_model_stream0s_0NtNtNtCs8MIZS7aWa8c_7reqwest10async_impl8response8ResponseNtCsdv8H5wLNKRh_6anyhow5ErrorE0CscQZipz51Wea_16integration_test
FNDA:0,_RNCNCNCNCNvMNtCscf95YBKwsk1_4loro7serviceNtBa_11LoroService16call_small_model0s_0s_00CscQZipz51Wea_16integration_test
FNDA:20,_RNCNCNCNCNvMNtCscf95YBKwsk1_4loro7serviceNtBa_11LoroService16call_small_model0s_0s_0s_0CscQZipz51Wea_16integration_test
FNDA:20,_RNCNCNCNCNvMNtCscf95YBKwsk1_4loro7serviceNtBa_11LoroService22get_large_model_stream0s_0s_00CscQZipz51Wea_16integration_test
FNDA:0,_RNCNCNCNvMNtCscf95YBKwsk1_4loro7serviceNtB8_11LoroService16call_small_model0s_00CscQZipz51Wea_16integration_test
FNDA:20,_RNCNCNCNvMNtCscf95YBKwsk1_4loro7serviceNtB8_11LoroService16call_small_model0s_0s_0CscQZipz51Wea_16integration_test
FNDA:0,_RNCNCNCNvMNtCscf95YBKwsk1_4loro7serviceNtB8_11LoroService22get_large_model_stream0s_00CscQZipz51Wea_16integration_test
FNDA:20,_RNCNCNCNvMNtCscf95YBKwsk1_4loro7serviceNtB8_11LoroService22get_large_model_stream0s_0s_0CscQZipz51Wea_16integration_test
FNDA:0,_RNCNCNvMNtCscf95YBKwsk1_4loro7serviceNtB6_11LoroService15chat_completion00CscQZipz51Wea_16integration_test
FNDA:0,_RNCNCNvMNtCscf95YBKwsk1_4loro7serviceNtB6_11LoroService16call_small_model00CscQZipz51Wea_16integration_test
FNDA:0,_RNCNCNvMNtCscf95YBKwsk1_4loro7serviceNtB6_11LoroService16call_small_model0s0_0CscQZipz51Wea_16integration_test
FNDA:0,_RNCNCNvMNtCscf95YBKwsk1_4loro7serviceNtB6_11LoroService16call_small_model0s1_0CscQZipz51Wea_16integration_test
FNDA:0,_RNCNCNvMNtCscf95YBKwsk1_4loro7serviceNtB6_11LoroService16call_small_model0s2_0CscQZipz51Wea_16integration_test
FNDA:20,_RNCNCNvMNtCscf95YBKwsk1_4loro7serviceNtB6_11LoroService16call_small_model0s_0CscQZipz51Wea_16integration_test
FNDA:0,_RNCNCNvMNtCscf95YBKwsk1_4loro7serviceNtB6_11LoroService21stream_quick_response00CscQZipz51Wea_16integration_test
FNDA:0,_RNCNCNvMNtCscf95YBKwsk1_4loro7serviceNtB6_11LoroService21stream_quick_response0s0_0CscQZipz51Wea_16integration_test
FNDA:0,_RNCNCNvMNtCscf95YBKwsk1_4loro7serviceNtB6_11LoroService21stream_quick_response0s_0CscQZipz51Wea_16integration_test
FNDA:0,_RNCNCNvMNtCscf95YBKwsk1_4loro7serviceNtB6_11LoroService22get_large_model_stream00CscQZipz51Wea_16integration_test
FNDA:0,_RNCNCNvMNtCscf95YBKwsk1_4loro7serviceNtB6_11LoroService22get_large_model_stream0s0_0CscQZipz51Wea_16integration_test
FNDA:20,_RNCNCNvMNtCscf95YBKwsk1_4loro7serviceNtB6_11LoroService22get_large_model_stream0s_0CscQZipz51Wea_16integration_test
FNDA:0,_RNCNCNvMNtCscf95YBKwsk1_4loro7serviceNtB6_11LoroService22stream_direct_response00CscQZipz51Wea_16integration_test
FNDA:0,_RNCNCNvMNtCscf95YBKwsk1_4loro7serviceNtB6_11LoroService22stream_direct_response0s_0CscQZipz51Wea_16integration_test
FNDA:5,_RNCNvMNtCscf95YBKwsk1_4loro7serviceNtB4_11LoroService15chat_completion0CscQZipz51Wea_16integration_test
FNDA:5,_RNCNvMNtCscf95YBKwsk1_4loro7serviceNtB4_11LoroService16call_small_model0CscQZipz51Wea_16integration_test
FNDA:5,_RNCNvMNtCscf95YBKwsk1_4loro7serviceNtB4_11LoroService18get_quick_response0CscQZipz51Wea_16integration_test
FNDA:5,_RNCNvMNtCscf95YBKwsk1_4loro7serviceNtB4_11LoroService21stream_quick_response0CscQZipz51Wea_16integration_test
FNDA:5,_RNCNvMNtCscf95YBKwsk1_4loro7serviceNtB4_11LoroService22get_large_model_stream0CscQZipz51Wea_16integration_test
FNDA:0,_RNCNvMNtCscf95YBKwsk1_4loro7serviceNtB4_11LoroService22stream_direct_response0CscQZipz51Wea_16integration_test
FNDA:2,_RNCNvMNtCscf95YBKwsk1_4loro7serviceNtB4_11LoroService3new0CscQZipz51Wea_16integration_test
FNDA:0,_RINvNtCscf95YBKwsk1_4loro7service18execute_with_retryNCNCNvMB2_NtB2_11LoroService16call_small_model0s_0NtNtNtCs8MIZS7aWa8c_7reqwest10async_impl8response8ResponseNtCsdv8H5wLNKRh_6anyhow5ErrorECscHcYy1Qx0uY_4loro
FNDA:0,_RINvNtCscf95YBKwsk1_4loro7service18execute_with_retryNCNCNvMB2_NtB2_11LoroService22get_large_model_stream0s_0NtNtNtCs8MIZS7aWa8c_7reqwest10async_impl8response8ResponseNtCsdv8H5wLNKRh_6anyhow5ErrorECscHcYy1Qx0uY_4loro
FNDA:0,_RNCINvNtCscf95YBKwsk1_4loro7service18execute_with_retryNCNCNvMB4_NtB4_11LoroService16call_small_model0s_0NtNtNtCs8MIZS7aWa8c_7reqwest10async_impl8response8ResponseNtCsdv8H5wLNKRh_6anyhow5ErrorE0CscHcYy1Qx0uY_4loro
FNDA:0,_RNCINvNtCscf95YBKwsk1_4loro7service18execute_with_retryNCNCNvMB4_NtB4_11LoroService22get_large_model_stream0s_0NtNtNtCs8MIZS7aWa8c_7reqwest10async_impl8response8ResponseNtCsdv8H5wLNKRh_6anyhow5ErrorE0CscHcYy1Qx0uY_4loro
FNDA:0,_RNCNCNCNCNvMNtCscf95YBKwsk1_4loro7serviceNtBa_11LoroService16call_small_model0s_0s_00CscHcYy1Qx0uY_4loro
FNDA:0,_RNCNCNCNCNvMNtCscf95YBKwsk1_4loro7serviceNtBa_11LoroService16call_small_model0s_0s_0s_0CscHcYy1Qx0uY_4loro
FNDA:0,_RNCNCNCNCNvMNtCscf95YBKwsk1_4loro7serviceNtBa_11LoroService22get_large_model_stream0s_0s_00CscHcYy1Qx0uY_4loro
FNDA:0,_RNCNCNCNvMNtCscf95YBKwsk1_4loro7serviceNtB8_11LoroService16call_small_model0s_00CscHcYy1Qx0uY_4loro
FNDA:0,_RNCNCNCNvMNtCscf95YBKwsk1_4loro7serviceNtB8_11LoroService16call_small_model0s_0s_0CscHcYy1Qx0uY_4loro
FNDA:0,_RNCNCNCNvMNtCscf95YBKwsk1_4loro7serviceNtB8_11LoroService22get_large_model_stream0s_00CscHcYy1Qx0uY_4loro
FNDA:0,_RNCNCNCNvMNtCscf95YBKwsk1_4loro7serviceNtB8_11LoroService22get_large_model_stream0s_0s_0CscHcYy1Qx0uY_4loro
FNDA:0,_RNCNCNvMNtCscf95YBKwsk1_4loro7serviceNtB6_11LoroService15chat_completion00CscHcYy1Qx0uY_4loro
FNDA:0,_RNCNCNvMNtCscf95YBKwsk1_4loro7serviceNtB6_11LoroService16call_small_model00CscHcYy1Qx0uY_4loro
FNDA:0,_RNCNCNvMNtCscf95YBKwsk1_4loro7serviceNtB6_11LoroService16call_small_model0s0_0CscHcYy1Qx0uY_4loro
FNDA:0,_RNCNCNvMNtCscf95YBKwsk1_4loro7serviceNtB6_11LoroService16call_small_model0s1_0CscHcYy1Qx0uY_4loro
FNDA:0,_RNCNCNvMNtCscf95YBKwsk1_4loro7serviceNtB6_11LoroService16call_small_model0s2_0CscHcYy1Qx0uY_4loro
FNDA:0,_RNCNCNvMNtCscf95YBKwsk1_4loro7serviceNtB6_11LoroService16call_small_model0s_0CscHcYy1Qx0uY_4loro
FNDA:0,_RNCNCNvMNtCscf95YBKwsk1_4loro7serviceNtB6_11LoroService21stream_quick_response00CscHcYy1Qx0uY_4loro
FNDA:0,_RNCNCNvMNtCscf95YBKwsk1_4loro7serviceNtB6_11LoroService21stream_quick_response0s0_0CscHcYy1Qx0uY_4loro
FNDA:0,_RNCNCNvMNtCscf95YBKwsk1_4loro7serviceNtB6_11LoroService21stream_quick_response0s_0CscHcYy1Qx0uY_4loro
FNDA:0,_RNCNCNvMNtCscf95YBKwsk1_4loro7serviceNtB6_11LoroService22get_large_model_stream00CscHcYy1Qx0uY_4loro
FNDA:0,_RNCNCNvMNtCscf95YBKwsk1_4loro7serviceNtB6_11LoroService22get_large_model_stream0s0_0CscHcYy1Qx0uY_4loro
FNDA:0,_RNCNCNvMNtCscf95YBKwsk1_4loro7serviceNtB6_11LoroService22get_large_model_stream0s_0CscHcYy1Qx0uY_4loro
FNDA:0,_RNCNCNvMNtCscf95YBKwsk1_4loro7serviceNtB6_11LoroService22stream_direct_response00CscHcYy1Qx0uY_4loro
FNDA:0,_RNCNCNvMNtCscf95YBKwsk1_4loro7serviceNtB6_11LoroService22stream_direct_response0s_0CscHcYy1Qx0uY_4loro
FNDA:0,_RNCNvMNtCscf95YBKwsk1_4loro7serviceNtB4_11LoroService11get_metrics0CscHcYy1Qx0uY_4loro
FNDA:0,_RNCNvMNtCscf95YBKwsk1_4loro7serviceNtB4_11LoroService13reset_metrics0CscHcYy1Qx0uY_4loro
FNDA:0,_RNCNvMNtCscf95YBKwsk1_4loro7serviceNtB4_11LoroService15chat_completion0CscHcYy1Qx0uY_4loro
FNDA:0,_RNCNvMNtCscf95YBKwsk1_4loro7serviceNtB4_11LoroService16call_small_model0CscHcYy1Qx0uY_4loro
FNDA:0,_RNCNvMNtCscf95YBKwsk1_4loro7serviceNtB4_11LoroService18get_quick_response0CscHcYy1Qx0uY_4loro
FNDA:0,_RNCNvMNtCscf95YBKwsk1_4loro7serviceNtB4_11LoroService21stream_quick_response0CscHcYy1Qx0uY_4loro
FNDA:0,_RNCNvMNtCscf95YBKwsk1_4loro7serviceNtB4_11LoroService22get_large_model_stream0CscHcYy1Qx0uY_4loro
FNDA:0,_RNCNvMNtCscf95YBKwsk1_4loro7serviceNtB4_11LoroService22stream_direct_response0CscHcYy1Qx0uY_4loro
FNDA:0,_RNCNvMNtCscf95YBKwsk1_4loro7serviceNtB4_11LoroService3new0CscHcYy1Qx0uY_4loro
FNDA:0,_RINvNtCs6IJppu6JJIH_4loro7service18execute_with_retrypppEB4_
FNDA:0,_RNCINvNtCs6IJppu6JJIH_4loro7service18execute_with_retrypppE0B6_
FNDA:0,_RNCNCNCNCNvMNtCs6IJppu6JJIH_4loro7serviceNtBa_11LoroService16call_small_model0s_0s_00Bc_
FNDA:0,_RNCNCNCNCNvMNtCs6IJppu6JJIH_4loro7serviceNtBa_11LoroService16call_small_model0s_0s_0s_0Bc_
FNDA:0,_RNCNCNCNCNvMNtCs6IJppu6JJIH_4loro7serviceNtBa_11LoroService22get_large_model_stream0s_0s_00Bc_
FNDA:0,_RNCNCNCNvMNtCs6IJppu6JJIH_4loro7serviceNtB8_11LoroService16call_small_model0s_00Ba_
FNDA:0,_RNCNCNCNvMNtCs6IJppu6JJIH_4loro7serviceNtB8_11LoroService16call_small_model0s_0s_0Ba_
FNDA:0,_RNCNCNCNvMNtCs6IJppu6JJIH_4loro7serviceNtB8_11LoroService22get_large_model_stream0s_00Ba_
FNDA:0,_RNCNCNCNvMNtCs6IJppu6JJIH_4loro7serviceNtB8_11LoroService22get_large_model_stream0s_0s_0Ba_
FNDA:0,_RNCNCNvMNtCs6IJppu6JJIH_4loro7serviceNtB6_11LoroService15chat_completion00B8_
FNDA:0,_RNCNCNvMNtCs6IJppu6JJIH_4loro7serviceNtB6_11LoroService16call_small_model00B8_
FNDA:0,_RNCNCNvMNtCs6IJppu6JJIH_4loro7serviceNtB6_11LoroService16call_small_model0s0_0B8_
FNDA:0,_RNCNCNvMNtCs6IJppu6JJIH_4loro7serviceNtB6_11LoroService16call_small_model0s1_0B8_
FNDA:0,_RNCNCNvMNtCs6IJppu6JJIH_4loro7serviceNtB6_11LoroService16call_small_model0s2_0B8_
FNDA:0,_RNCNCNvMNtCs6IJppu6JJIH_4loro7serviceNtB6_11LoroService16call_small_model0s_0B8_
FNDA:0,_RNCNCNvMNtCs6IJppu6JJIH_4loro7serviceNtB6_11LoroService21stream_quick_response00B8_
FNDA:0,_RNCNCNvMNtCs6IJppu6JJIH_4loro7serviceNtB6_11LoroService21stream_quick_response0s0_0B8_
FNDA:0,_RNCNCNvMNtCs6IJppu6JJIH_4loro7serviceNtB6_11LoroService21stream_quick_response0s_0B8_
FNDA:0,_RNCNCNvMNtCs6IJppu6JJIH_4loro7serviceNtB6_11LoroService22get_large_model_stream00B8_
FNDA:0,_RNCNCNvMNtCs6IJppu6JJIH_4loro7serviceNtB6_11LoroService22get_large_model_stream0s0_0B8_
FNDA:0,_RNCNCNvMNtCs6IJppu6JJIH_4loro7serviceNtB6_11LoroService22get_large_model_stream0s_0B8_
FNDA:0,_RNCNCNvMNtCs6IJppu6JJIH_4loro7serviceNtB6_11LoroService22stream_direct_response00B8_
FNDA:0,_RNCNCNvMNtCs6IJppu6JJIH_4loro7serviceNtB6_11LoroService22stream_direct_response0s_0B8_
FNDA:0,_RNCNvMNtCs6IJppu6JJIH_4loro7serviceNtB4_11LoroService11get_metrics0B6_
FNDA:0,_RNCNvMNtCs6IJppu6JJIH_4loro7serviceNtB4_11LoroService13reset_metrics0B6_
FNDA:0,_RNCNvMNtCs6IJppu6JJIH_4loro7serviceNtB4_11LoroService15chat_completion0B6_
FNDA:0,_RNCNvMNtCs6IJppu6JJIH_4loro7serviceNtB4_11LoroService16call_small_model0B6_
FNDA:0,_RNCNvMNtCs6IJppu6JJIH_4loro7serviceNtB4_11LoroService18get_quick_response0B6_
FNDA:0,_RNCNvMNtCs6IJppu6JJIH_4loro7serviceNtB4_11LoroService21stream_quick_response0B6_
FNDA:0,_RNCNvMNtCs6IJppu6JJIH_4loro7serviceNtB4_11LoroService22get_large_model_stream0B6_
FNDA:0,_RNCNvMNtCs6IJppu6JJIH_4loro7serviceNtB4_11LoroService22stream_direct_response0B6_
FNDA:0,_RNCNvMNtCs6IJppu6JJIH_4loro7serviceNtB4_11LoroService29is_appropriate_quick_response0B6_
FNDA:0,_RNCNvMNtCs6IJppu6JJIH_4loro7serviceNtB4_11LoroService3new0B6_
FNDA:0,_RNvMNtCs6IJppu6JJIH_4loro7serviceNtB2_11LoroService11get_metrics
FNDA:0,_RNvMNtCs6IJppu6JJIH_4loro7serviceNtB2_11LoroService13reset_metrics
FNDA:0,_RNvMNtCs6IJppu6JJIH_4loro7serviceNtB2_11LoroService15chat_completion
FNDA:0,_RNvMNtCs6IJppu6JJIH_4loro7serviceNtB2_11LoroService16call_small_model
FNDA:0,_RNvMNtCs6IJppu6JJIH_4loro7serviceNtB2_11LoroService18get_quick_response
FNDA:0,_RNvMNtCs6IJppu6JJIH_4loro7serviceNtB2_11LoroService21stream_quick_response
FNDA:0,_RNvMNtCs6IJppu6JJIH_4loro7serviceNtB2_11LoroService22get_large_model_stream
FNDA:0,_RNvMNtCs6IJppu6JJIH_4loro7serviceNtB2_11LoroService22stream_direct_response
FNDA:0,_RNvMNtCs6IJppu6JJIH_4loro7serviceNtB2_11LoroService23process_sse_line_static
FNDA:0,_RNvMNtCs6IJppu6JJIH_4loro7serviceNtB2_11LoroService29is_appropriate_quick_response
FNDA:0,_RNvMNtCs6IJppu6JJIH_4loro7serviceNtB2_11LoroService3new
FNDA:2,_RNCNvMNtCscf95YBKwsk1_4loro7serviceNtB4_11LoroService11get_metrics0Cs92scKuNjJE2_18service_error_test
FNDA:1,_RNCNvMNtCscf95YBKwsk1_4loro7serviceNtB4_11LoroService13reset_metrics0Cs92scKuNjJE2_18service_error_test
FNDA:6,_RNCNvMNtCscf95YBKwsk1_4loro7serviceNtB4_11LoroService3new0Cs92scKuNjJE2_18service_error_test
FNF:44
FNH:27
DA:37,22
DA:38,22
DA:39,22
DA:40,22
DA:41,22
DA:42,22
DA:43,22
DA:44,22
DA:45,22
DA:46,22
DA:47,22
DA:49,22
DA:50,0
DA:53,22
DA:55,22
DA:56,22
DA:57,22
DA:58,22
DA:59,22
DA:60,22
DA:61,22
DA:63,7
DA:64,7
DA:66,7
DA:67,0
DA:71,7
DA:72,1
DA:74,6
DA:77,0
DA:78,0
DA:79,0
DA:80,0
DA:81,0
DA:83,0
DA:85,0
DA:86,7
DA:88,6
DA:89,6
DA:90,6
DA:91,6
DA:92,6
DA:93,6
DA:96,6
DA:97,6
DA:100,6
DA:101,6
DA:102,6
DA:104,6
DA:105,0
DA:110,6
DA:111,6
DA:112,6
DA:113,6
DA:114,6
DA:115,6
DA:116,6
DA:117,6
DA:118,6
DA:119,6
DA:120,6
DA:121,6
DA:122,6
DA:123,6
DA:126,6
DA:128,6
DA:130,0
DA:131,0
DA:132,0
DA:133,0
DA:134,6
DA:136,6
DA:137,6
DA:138,6
DA:139,6
DA:140,6
DA:143,6
DA:144,0
DA:145,6
DA:148,6
DA:149,6
DA:150,6
DA:151,6
DA:153,0
DA:154,0
DA:155,0
DA:156,0
DA:157,0
DA:158,0
DA:159,0
DA:160,0
DA:161,0
DA:162,0
DA:163,0
DA:164,0
DA:165,0
DA:166,0
DA:167,0
DA:168,0
DA:169,0
DA:171,0
DA:173,0
DA:176,0
DA:177,0
DA:178,0
DA:180,0
DA:181,6
DA:183,1
DA:184,1
DA:185,1
DA:186,1
DA:187,1
DA:188,1
DA:190,0
DA:191,0
DA:192,0
DA:193,0
DA:194,0
DA:195,0
DA:196,0
DA:197,0
DA:198,0
DA:199,0
DA:200,0
DA:201,0
DA:202,0
DA:203,0
DA:204,0
DA:205,0
DA:206,0
DA:208,0
DA:210,0
DA:212,0
DA:213,0
DA:215,0
DA:216,1
DA:218,6
DA:220,6
DA:221,0
DA:222,6
DA:225,6
DA:226,0
DA:227,0
DA:228,0
DA:229,0
DA:231,6
DA:232,6
DA:237,6
DA:238,6
DA:239,6
DA:240,6
DA:241,6
DA:242,6
DA:243,6
DA:244,6
DA:245,6
DA:246,6
DA:247,6
DA:249,6
DA:250,6
DA:251,0
DA:252,6
DA:254,6
DA:255,6
DA:256,6
DA:257,6
DA:258,0
DA:259,6
DA:263,6
DA:264,6
DA:265,6
DA:269,6
DA:272,5
DA:273,5
DA:274,5
DA:275,5
DA:277,5
DA:278,5
DA:279,5
DA:282,5
DA:283,5
DA:284,5
DA:285,5
DA:286,5
DA:287,5
DA:288,5
DA:289,5
DA:290,5
DA:291,5
DA:292,5
DA:297,1
DA:298,1
DA:299,1
DA:300,1
DA:301,1
DA:302,1
DA:303,1
DA:304,1
DA:305,1
DA:306,1
DA:307,1
DA:308,1
DA:312,6
DA:313,5
DA:315,1
DA:318,6
DA:319,6
DA:320,6
DA:321,6
DA:322,6
DA:325,6
DA:326,6
DA:327,6
DA:328,6
DA:329,6
DA:330,6
DA:333,6
DA:334,6
DA:335,6
DA:336,6
DA:338,6
DA:339,24
DA:340,24
DA:341,24
DA:343,0
DA:344,0
DA:345,0
DA:348,24
DA:349,24
DA:350,24
DA:351,24
DA:352,24
DA:353,24
DA:354,24
DA:355,24
DA:356,6
DA:357,6
DA:359,6
DA:361,0
DA:362,0
DA:363,0
DA:364,0
DA:365,0
DA:366,0
DA:367,0
DA:368,0
DA:369,0
DA:372,0
DA:374,0
DA:375,0
DA:376,0
DA:377,0
DA:378,0
DA:381,0
DA:382,0
DA:383,0
DA:384,0
DA:386,0
DA:387,0
DA:388,0
DA:389,0
DA:390,0
DA:391,0
DA:392,0
DA:395,0
DA:396,6
DA:398,0
DA:400,0
DA:401,0
DA:402,0
DA:404,0
DA:405,0
DA:406,0
DA:407,0
DA:408,0
DA:409,0
DA:411,7
DA:412,7
DA:413,7
DA:414,7
DA:415,7
DA:417,7
DA:420,7
DA:421,7
DA:422,7
DA:423,7
DA:426,7
DA:428,14
DA:429,7
DA:430,7
DA:431,7
DA:432,7
DA:433,7
DA:435,7
DA:436,7
DA:437,7
DA:438,7
DA:439,7
DA:440,7
DA:441,7
DA:442,7
DA:443,7
DA:444,7
DA:445,7
DA:446,7
DA:448,7
DA:449,7
DA:450,7
DA:451,7
DA:454,7
DA:455,7
DA:458,7
DA:459,7
DA:460,7
DA:461,7
DA:462,7
DA:463,7
DA:466,7
DA:467,7
DA:468,7
DA:469,7
DA:470,28
DA:471,28
DA:472,28
DA:474,0
DA:475,0
DA:476,0
DA:479,28
DA:480,28
DA:481,28
DA:482,28
DA:483,28
DA:484,28
DA:485,28
DA:486,7
DA:487,7
DA:489,7
DA:491,0
DA:492,0
DA:493,0
DA:494,0
DA:495,0
DA:496,0
DA:497,0
DA:498,0
DA:499,0
DA:501,0
DA:502,0
DA:503,0
DA:506,0
DA:507,0
DA:508,0
DA:509,0
DA:510,0
DA:511,0
DA:513,0
DA:514,0
DA:515,0
DA:516,0
DA:517,0
DA:518,0
DA:519,0
DA:520,0
DA:521,0
DA:526,0
DA:528,0
DA:529,0
DA:532,0
DA:533,0
DA:534,0
DA:536,0
DA:537,0
DA:538,0
DA:539,0
DA:540,0
DA:541,0
DA:545,0
DA:546,0
DA:547,0
DA:548,0
DA:549,0
DA:553,0
DA:555,0
DA:557,0
DA:559,0
DA:560,0
DA:561,0
DA:562,0
DA:563,0
DA:564,0
DA:565,0
DA:566,0
DA:567,0
DA:568,0
DA:569,0
DA:570,0
DA:571,0
DA:572,0
DA:574,0
DA:576,0
DA:577,0
DA:578,0
DA:579,0
DA:581,0
DA:582,0
DA:583,0
DA:584,0
DA:585,0
DA:586,0
DA:589,0
DA:593,0
DA:594,0
DA:596,0
DA:597,7
DA:599,7
DA:600,7
DA:601,7
DA:602,7
DA:603,7
DA:605,7
DA:606,5
DA:607,1
DA:608,4
DA:611,4
DA:612,4
DA:613,1
DA:614,3
DA:617,3
DA:618,2
DA:619,2
DA:621,2
DA:622,1
DA:623,1
DA:624,1
DA:625,1
DA:626,1
DA:627,1
DA:628,1
DA:629,1
DA:630,1
DA:631,1
DA:632,1
DA:634,0
DA:637,2
DA:639,2
DA:640,2
DA:641,2
DA:642,2
DA:643,2
DA:644,2
DA:645,2
DA:646,2
DA:647,2
DA:648,2
DA:649,2
DA:650,2
DA:651,2
DA:652,2
DA:653,2
DA:655,2
DA:657,2
DA:658,0
DA:659,2
DA:661,2
DA:662,2
DA:663,2
DA:664,2
DA:665,2
DA:666,0
DA:667,0
DA:670,0
DA:671,0
DA:672,0
DA:673,0
DA:674,0
DA:675,0
DA:676,0
DA:677,0
DA:678,0
DA:679,0
DA:680,0
DA:681,0
DA:682,0
DA:683,0
DA:684,0
DA:687,0
DA:689,0
DA:690,0
DA:691,0
DA:692,0
DA:693,0
DA:694,0
DA:695,0
DA:696,0
DA:697,0
DA:698,0
DA:699,0
DA:701,1
DA:703,1
DA:704,1
DA:707,2
DA:710,2
DA:711,7
DA:713,6
DA:714,6
DA:715,6
DA:717,6
DA:718,6
DA:719,6
DA:720,0
DA:722,6
DA:725,6
DA:726,6
DA:727,6
DA:728,6
DA:729,6
DA:730,6
DA:731,6
DA:734,6
DA:736,4
DA:737,4
DA:738,4
DA:739,4
DA:740,4
DA:744,13
DA:745,13
DA:746,13
DA:747,13
DA:748,13
DA:749,13
DA:750,13
DA:751,13
DA:752,13
DA:753,13
DA:754,13
DA:756,65
DA:757,52
DA:758,52
DA:759,0
DA:760,0
DA:761,0
DA:762,0
DA:763,0
DA:765,52
DA:766,52
DA:767,52
DA:768,39
DA:769,39
DA:770,0
DA:774,0
DA:776,39
DA:778,13
DA:779,0
DA:782,0
DA:789,13
DA:790,13
DA:791,13
DA:792,13
DA:793,13
DA:794,13
DA:795,13
BRF:0
BRH:0
LF:589
LH:333
end_of_record
SF:/Users/joe/github/deadjoe/loro/src/stats.rs
FN:42,_RNvMNtCscf95YBKwsk1_4loro5statsNtB2_14StatsCollector11add_request
FN:138,_RNvMNtCscf95YBKwsk1_4loro5statsNtB2_14StatsCollector17get_request_count
FN:153,_RNvMNtCscf95YBKwsk1_4loro5statsNtB2_14StatsCollector27get_avg_first_response_time
FN:29,_RNvMNtCscf95YBKwsk1_4loro5statsNtB2_14StatsCollector3new
FN:120,_RNvMNtCscf95YBKwsk1_4loro5statsNtB2_14StatsCollector5reset
FN:95,_RNvMNtCscf95YBKwsk1_4loro5statsNtB2_14StatsCollector9get_stats
FN:173,_RNvNtCscf95YBKwsk1_4loro5stats15calculate_stats
FN:185,_RNCNvNtCscf95YBKwsk1_4loro5stats15calculate_stats0B5_
FN:204,_RNCNvNtCscf95YBKwsk1_4loro5stats15calculate_statss0_0B5_
FN:196,_RNCNvNtCscf95YBKwsk1_4loro5stats15calculate_statss_0B5_
FN:185,_RNCNvNtCs6IJppu6JJIH_4loro5stats15calculate_stats0B5_
FN:204,_RNCNvNtCs6IJppu6JJIH_4loro5stats15calculate_statss0_0B5_
FN:196,_RNCNvNtCs6IJppu6JJIH_4loro5stats15calculate_statss_0B5_
FN:42,_RNvMNtCs6IJppu6JJIH_4loro5statsNtB2_14StatsCollector11add_request
FN:138,_RNvMNtCs6IJppu6JJIH_4loro5statsNtB2_14StatsCollector17get_request_count
FN:153,_RNvMNtCs6IJppu6JJIH_4loro5statsNtB2_14StatsCollector27get_avg_first_response_time
FN:29,_RNvMNtCs6IJppu6JJIH_4loro5statsNtB2_14StatsCollector3new
FN:120,_RNvMNtCs6IJppu6JJIH_4loro5statsNtB2_14StatsCollector5reset
FN:95,_RNvMNtCs6IJppu6JJIH_4loro5statsNtB2_14StatsCollector9get_stats
FN:173,_RNvNtCs6IJppu6JJIH_4loro5stats15calculate_stats
FNDA:329,_RNvMNtCscf95YBKwsk1_4loro5statsNtB2_14StatsCollector11add_request
FNDA:75,_RNvMNtCscf95YBKwsk1_4loro5statsNtB2_14StatsCollector17get_request_count
FNDA:67,_RNvMNtCscf95YBKwsk1_4loro5statsNtB2_14StatsCollector27get_avg_first_response_time
FNDA:60,_RNvMNtCscf95YBKwsk1_4loro5statsNtB2_14StatsCollector3new
FNDA:10,_RNvMNtCscf95YBKwsk1_4loro5statsNtB2_14StatsCollector5reset
FNDA:73,_RNvMNtCscf95YBKwsk1_4loro5statsNtB2_14StatsCollector9get_stats
FNDA:303,_RNvNtCscf95YBKwsk1_4loro5stats15calculate_stats
FNDA:11675,_RNCNvNtCscf95YBKwsk1_4loro5stats15calculate_stats0B5_
FNDA:496,_RNCNvNtCscf95YBKwsk1_4loro5stats15calculate_statss0_0B5_
FNDA:11424,_RNCNvNtCscf95YBKwsk1_4loro5stats15calculate_statss_0B5_
FNDA:0,_RNCNvNtCs6IJppu6JJIH_4loro5stats15calculate_stats0B5_
FNDA:0,_RNCNvNtCs6IJppu6JJIH_4loro5stats15calculate_statss0_0B5_
FNDA:0,_RNCNvNtCs6IJppu6JJIH_4loro5stats15calculate_statss_0B5_
FNDA:0,_RNvMNtCs6IJppu6JJIH_4loro5statsNtB2_14StatsCollector11add_request
FNDA:0,_RNvMNtCs6IJppu6JJIH_4loro5statsNtB2_14StatsCollector17get_request_count
FNDA:0,_RNvMNtCs6IJppu6JJIH_4loro5statsNtB2_14StatsCollector27get_avg_first_response_time
FNDA:0,_RNvMNtCs6IJppu6JJIH_4loro5statsNtB2_14StatsCollector3new
FNDA:0,_RNvMNtCs6IJppu6JJIH_4loro5statsNtB2_14StatsCollector5reset
FNDA:0,_RNvMNtCs6IJppu6JJIH_4loro5statsNtB2_14StatsCollector9get_stats
FNDA:0,_RNvNtCs6IJppu6JJIH_4loro5stats15calculate_stats
FNF:10
FNH:10
DA:29,60
DA:30,60
DA:31,60
DA:32,60
DA:33,60
DA:34,60
DA:35,60
DA:36,60
DA:37,60
DA:38,60
DA:39,60
DA:40,60
DA:42,329
DA:43,329
DA:44,329
DA:45,329
DA:46,329
DA:47,329
DA:48,329
DA:49,329
DA:50,329
DA:51,0
DA:52,0
DA:54,0
DA:59,329
DA:60,329
DA:62,329
DA:63,325
DA:64,325
DA:66,329
DA:67,327
DA:68,327
DA:70,329
DA:73,329
DA:74,13
DA:75,13
DA:78,13
DA:79,13
DA:82,13
DA:83,11
DA:84,11
DA:85,13
DA:86,11
DA:87,11
DA:90,13
DA:91,13
DA:92,316
DA:93,329
DA:95,73
DA:96,73
DA:97,73
DA:98,0
DA:99,0
DA:101,0
DA:102,0
DA:103,0
DA:104,0
DA:105,0
DA:106,0
DA:111,73
DA:112,73
DA:113,73
DA:114,73
DA:115,73
DA:116,73
DA:118,73
DA:120,10
DA:121,10
DA:122,10
DA:123,0
DA:124,0
DA:126,0
DA:131,10
DA:132,10
DA:133,10
DA:134,10
DA:135,10
DA:136,10
DA:138,75
DA:139,75
DA:140,75
DA:141,0
DA:142,0
DA:143,0
DA:147,0
DA:150,75
DA:151,75
DA:153,67
DA:154,67
DA:155,67
DA:156,0
DA:157,0
DA:158,0
DA:162,0
DA:165,67
DA:166,14
DA:168,53
DA:170,67
DA:173,303
DA:174,303
DA:175,54
DA:176,54
DA:177,54
DA:178,54
DA:179,54
DA:180,54
DA:181,54
DA:182,249
DA:185,11675
DA:186,249
DA:187,1
DA:188,1
DA:189,1
DA:190,1
DA:191,1
DA:192,1
DA:193,1
DA:194,248
DA:196,11424
DA:198,248
DA:199,248
DA:200,248
DA:203,248
DA:204,496
DA:205,496
DA:206,496
DA:207,496
DA:208,248
DA:209,248
DA:211,248
DA:212,248
DA:213,248
DA:214,248
DA:215,248
DA:216,248
DA:217,248
DA:218,303
BRF:0
BRH:0
LF:140
LH:118
end_of_record